SF:/Users/sac/chicago-tdd-tools/src/assertions.rs
FN:62,_RINvNtCsgN1vMD0IGXY_17chicago_tdd_tools10assertions11assert_thatppEB4_
FN:16,_RINvNtCsgN1vMD0IGXY_17chicago_tdd_tools10assertions12assert_errorppEB4_
FN:7,_RINvNtCsgN1vMD0IGXY_17chicago_tdd_tools10assertions14assert_successppEB4_
FN:34,_RINvNtCsgN1vMD0IGXY_17chicago_tdd_tools10assertions15assert_in_rangepEB4_
FN:25,_RINvNtCsgN1vMD0IGXY_17chicago_tdd_tools10assertions18assert_eq_with_msgpEB4_
FN:71,_RINvNtCsgN1vMD0IGXY_17chicago_tdd_tools10assertions20assert_that_with_msgppEB4_
FNDA:0,_RINvNtCsgN1vMD0IGXY_17chicago_tdd_tools10assertions11assert_thatppEB4_
FNDA:0,_RINvNtCsgN1vMD0IGXY_17chicago_tdd_tools10assertions12assert_errorppEB4_
FNDA:0,_RINvNtCsgN1vMD0IGXY_17chicago_tdd_tools10assertions14assert_successppEB4_
FNDA:0,_RINvNtCsgN1vMD0IGXY_17chicago_tdd_tools10assertions15assert_in_rangepEB4_
FNDA:0,_RINvNtCsgN1vMD0IGXY_17chicago_tdd_tools10assertions18assert_eq_with_msgpEB4_
FNDA:0,_RINvNtCsgN1vMD0IGXY_17chicago_tdd_tools10assertions20assert_that_with_msgppEB4_
FNF:6
FNH:0
DA:7,0
DA:8,0
DA:9,0
DA:10,0
DA:11,0
DA:13,0
DA:16,0
DA:17,0
DA:18,0
DA:19,0
DA:20,0
DA:22,0
DA:25,0
DA:26,0
DA:28,0
DA:31,0
DA:34,0
DA:35,0
DA:36,0
DA:37,0
DA:43,0
DA:62,0
DA:63,0
DA:64,0
DA:65,0
DA:67,0
DA:68,0
DA:71,0
DA:72,0
DA:73,0
DA:74,0
DA:76,0
DA:77,0
DA:78,0
DA:82,0
BRF:0
BRH:0
LF:35
LH:0
end_of_record
SF:/Users/sac/chicago-tdd-tools/src/builders.rs
FN:32,_RINvMNtCsgN1vMD0IGXY_17chicago_tdd_tools8buildersNtB3_15TestDataBuilder15with_order_datappEB5_
FN:57,_RINvMNtCsgN1vMD0IGXY_17chicago_tdd_tools8buildersNtB3_15TestDataBuilder18with_approval_datappEB5_
FN:46,_RINvMNtCsgN1vMD0IGXY_17chicago_tdd_tools8buildersNtB3_15TestDataBuilder18with_customer_datapEB5_
FN:26,_RINvMNtCsgN1vMD0IGXY_17chicago_tdd_tools8buildersNtB3_15TestDataBuilder8with_varppEB5_
FN:74,_RNvMNtCsgN1vMD0IGXY_17chicago_tdd_tools8buildersNtB2_15TestDataBuilder10build_json
FN:19,_RNvMNtCsgN1vMD0IGXY_17chicago_tdd_tools8buildersNtB2_15TestDataBuilder3new
FN:82,_RNvMNtCsgN1vMD0IGXY_17chicago_tdd_tools8buildersNtB2_15TestDataBuilder5build
FN:88,_RNvXs_NtCsgN1vMD0IGXY_17chicago_tdd_tools8buildersNtB4_15TestDataBuilderNtNtCs2CqrNpCrSUr_4core7default7Default7default
FNDA:0,_RINvMNtCsgN1vMD0IGXY_17chicago_tdd_tools8buildersNtB3_15TestDataBuilder15with_order_datappEB5_
FNDA:0,_RINvMNtCsgN1vMD0IGXY_17chicago_tdd_tools8buildersNtB3_15TestDataBuilder18with_approval_datappEB5_
FNDA:0,_RINvMNtCsgN1vMD0IGXY_17chicago_tdd_tools8buildersNtB3_15TestDataBuilder18with_customer_datapEB5_
FNDA:0,_RINvMNtCsgN1vMD0IGXY_17chicago_tdd_tools8buildersNtB3_15TestDataBuilder8with_varppEB5_
FNDA:0,_RNvMNtCsgN1vMD0IGXY_17chicago_tdd_tools8buildersNtB2_15TestDataBuilder10build_json
FNDA:0,_RNvMNtCsgN1vMD0IGXY_17chicago_tdd_tools8buildersNtB2_15TestDataBuilder3new
FNDA:0,_RNvMNtCsgN1vMD0IGXY_17chicago_tdd_tools8buildersNtB2_15TestDataBuilder5build
FNDA:0,_RNvXs_NtCsgN1vMD0IGXY_17chicago_tdd_tools8buildersNtB4_15TestDataBuilderNtNtCs2CqrNpCrSUr_4core7default7Default7default
FNF:8
FNH:0
DA:19,0
DA:20,0
DA:21,0
DA:22,0
DA:23,0
DA:26,0
DA:27,0
DA:28,0
DA:29,0
DA:32,0
DA:33,0
DA:34,0
DA:35,0
DA:36,0
DA:37,0
DA:38,0
DA:39,0
DA:40,0
DA:41,0
DA:42,0
DA:43,0
DA:46,0
DA:47,0
DA:48,0
DA:49,0
DA:50,0
DA:51,0
DA:53,0
DA:54,0
DA:57,0
DA:58,0
DA:59,0
DA:60,0
DA:61,0
DA:62,0
DA:63,0
DA:64,0
DA:65,0
DA:66,0
DA:67,0
DA:68,0
DA:74,0
DA:75,0
DA:76,0
DA:82,0
DA:83,0
DA:84,0
DA:88,0
DA:89,0
DA:90,0
BRF:0
BRH:0
LF:50
LH:0
end_of_record
SF:/Users/sac/chicago-tdd-tools/src/coverage.rs
FN:42,_RNvMNtCsgN1vMD0IGXY_17chicago_tdd_tools8coverageNtB2_14CoverageReport17generate_markdown
FN:22,_RNvMNtCsgN1vMD0IGXY_17chicago_tdd_tools8coverageNtB2_14CoverageReport3new
FN:32,_RNvMNtCsgN1vMD0IGXY_17chicago_tdd_tools8coverageNtB2_14CoverageReport8add_item
FN:51,_RNvXs_NtCsgN1vMD0IGXY_17chicago_tdd_tools8coverageNtB4_14CoverageReportNtNtCs2CqrNpCrSUr_4core7default7Default7default
FNDA:0,_RNvMNtCsgN1vMD0IGXY_17chicago_tdd_tools8coverageNtB2_14CoverageReport17generate_markdown
FNDA:0,_RNvMNtCsgN1vMD0IGXY_17chicago_tdd_tools8coverageNtB2_14CoverageReport3new
FNDA:0,_RNvMNtCsgN1vMD0IGXY_17chicago_tdd_tools8coverageNtB2_14CoverageReport8add_item
FNDA:0,_RNvXs_NtCsgN1vMD0IGXY_17chicago_tdd_tools8coverageNtB4_14CoverageReportNtNtCs2CqrNpCrSUr_4core7default7Default7default
FNF:4
FNH:0
DA:22,0
DA:23,0
DA:24,0
DA:25,0
DA:26,0
DA:27,0
DA:28,0
DA:29,0
DA:32,0
DA:33,0
DA:34,0
DA:35,0
DA:36,0
DA:37,0
DA:38,0
DA:39,0
DA:42,0
DA:43,0
DA:44,0
DA:47,0
DA:51,0
DA:52,0
DA:53,0
BRF:0
BRH:0
LF:23
LH:0
end_of_record
SF:/Users/sac/chicago-tdd-tools/src/fixture.rs
FN:124,_RNCNvXs1_NtCsgN1vMD0IGXY_17chicago_tdd_tools7fixtureNtB7_11TestFixtureNtNtCs2CqrNpCrSUr_4core7default7Default7default0B9_
FN:54,_RNvMNtCsgN1vMD0IGXY_17chicago_tdd_tools7fixtureNtB2_11TestFixture3new
FN:100,_RNvMs_NtCsgN1vMD0IGXY_17chicago_tdd_tools7fixtureINtB4_11TestFixturepE12get_metadataB6_
FN:95,_RNvMs_NtCsgN1vMD0IGXY_17chicago_tdd_tools7fixtureINtB4_11TestFixturepE12set_metadataB6_
FN:90,_RNvMs_NtCsgN1vMD0IGXY_17chicago_tdd_tools7fixtureINtB4_11TestFixturepE12test_counterB6_
FN:80,_RNvMs_NtCsgN1vMD0IGXY_17chicago_tdd_tools7fixtureINtB4_11TestFixturepE5innerB6_
FN:105,_RNvMs_NtCsgN1vMD0IGXY_17chicago_tdd_tools7fixtureINtB4_11TestFixturepE7cleanupB6_
FN:85,_RNvMs_NtCsgN1vMD0IGXY_17chicago_tdd_tools7fixtureINtB4_11TestFixturepE9inner_mutB6_
FN:68,_RNvMs_NtCsgN1vMD0IGXY_17chicago_tdd_tools7fixtureINtB4_11TestFixturepE9with_dataB6_
FN:116,_RNvXs0_NtCsgN1vMD0IGXY_17chicago_tdd_tools7fixtureuNtB5_15FixtureProvider14create_fixture
FN:122,_RNvXs1_NtCsgN1vMD0IGXY_17chicago_tdd_tools7fixtureNtB5_11TestFixtureNtNtCs2CqrNpCrSUr_4core7default7Default7default
FNDA:0,_RNCNvXs1_NtCsgN1vMD0IGXY_17chicago_tdd_tools7fixtureNtB7_11TestFixtureNtNtCs2CqrNpCrSUr_4core7default7Default7default0B9_
FNDA:0,_RNvMNtCsgN1vMD0IGXY_17chicago_tdd_tools7fixtureNtB2_11TestFixture3new
FNDA:0,_RNvMs_NtCsgN1vMD0IGXY_17chicago_tdd_tools7fixtureINtB4_11TestFixturepE12get_metadataB6_
FNDA:0,_RNvMs_NtCsgN1vMD0IGXY_17chicago_tdd_tools7fixtureINtB4_11TestFixturepE12set_metadataB6_
FNDA:0,_RNvMs_NtCsgN1vMD0IGXY_17chicago_tdd_tools7fixtureINtB4_11TestFixturepE12test_counterB6_
FNDA:0,_RNvMs_NtCsgN1vMD0IGXY_17chicago_tdd_tools7fixtureINtB4_11TestFixturepE5innerB6_
FNDA:0,_RNvMs_NtCsgN1vMD0IGXY_17chicago_tdd_tools7fixtureINtB4_11TestFixturepE7cleanupB6_
FNDA:0,_RNvMs_NtCsgN1vMD0IGXY_17chicago_tdd_tools7fixtureINtB4_11TestFixturepE9inner_mutB6_
FNDA:0,_RNvMs_NtCsgN1vMD0IGXY_17chicago_tdd_tools7fixtureINtB4_11TestFixturepE9with_dataB6_
FNDA:0,_RNvXs0_NtCsgN1vMD0IGXY_17chicago_tdd_tools7fixtureuNtB5_15FixtureProvider14create_fixture
FNDA:0,_RNvXs1_NtCsgN1vMD0IGXY_17chicago_tdd_tools7fixtureNtB5_11TestFixtureNtNtCs2CqrNpCrSUr_4core7default7Default7default
FNF:11
FNH:0
DA:54,0
DA:56,0
DA:58,0
DA:59,0
DA:60,0
DA:61,0
DA:62,0
DA:63,0
DA:68,0
DA:70,0
DA:72,0
DA:73,0
DA:74,0
DA:75,0
DA:76,0
DA:77,0
DA:80,0
DA:81,0
DA:82,0
DA:85,0
DA:86,0
DA:87,0
DA:90,0
DA:91,0
DA:92,0
DA:95,0
DA:96,0
DA:97,0
DA:100,0
DA:101,0
DA:102,0
DA:105,0
DA:107,0
DA:108,0
DA:116,0
DA:117,0
DA:118,0
DA:122,0
DA:124,0
DA:125,0
BRF:0
BRH:0
LF:41
LH:0
end_of_record
SF:/Users/sac/chicago-tdd-tools/src/generator.rs
FN:49,_RINvNtCsgN1vMD0IGXY_17chicago_tdd_tools9generator19generate_test_arrayKpEB4_
FN:62,_RINvNtCsgN1vMD0IGXY_17chicago_tdd_tools9generator27generate_test_array_patternKpEB4_
FN:19,_RNvMNtCsgN1vMD0IGXY_17chicago_tdd_tools9generatorNtB2_13TestGenerator13generate_test
FN:14,_RNvMNtCsgN1vMD0IGXY_17chicago_tdd_tools9generatorNtB2_13TestGenerator3new
FN:27,_RNvMNtCsgN1vMD0IGXY_17chicago_tdd_tools9generatorNtB2_13TestGenerator9get_tests
FN:75,_RNvNtCsgN1vMD0IGXY_17chicago_tdd_tools9generator12const_assert
FN:82,_RNvNtCsgN1vMD0IGXY_17chicago_tdd_tools9generator16const_assert_msg
FN:33,_RNvXs_NtCsgN1vMD0IGXY_17chicago_tdd_tools9generatorNtB4_13TestGeneratorNtNtCs2CqrNpCrSUr_4core7default7Default7default
FNDA:0,_RINvNtCsgN1vMD0IGXY_17chicago_tdd_tools9generator19generate_test_arrayKpEB4_
FNDA:0,_RINvNtCsgN1vMD0IGXY_17chicago_tdd_tools9generator27generate_test_array_patternKpEB4_
FNDA:0,_RNvMNtCsgN1vMD0IGXY_17chicago_tdd_tools9generatorNtB2_13TestGenerator13generate_test
FNDA:0,_RNvMNtCsgN1vMD0IGXY_17chicago_tdd_tools9generatorNtB2_13TestGenerator3new
FNDA:0,_RNvMNtCsgN1vMD0IGXY_17chicago_tdd_tools9generatorNtB2_13TestGenerator9get_tests
FNDA:0,_RNvNtCsgN1vMD0IGXY_17chicago_tdd_tools9generator12const_assert
FNDA:0,_RNvNtCsgN1vMD0IGXY_17chicago_tdd_tools9generator16const_assert_msg
FNDA:0,_RNvXs_NtCsgN1vMD0IGXY_17chicago_tdd_tools9generatorNtB4_13TestGeneratorNtNtCs2CqrNpCrSUr_4core7default7Default7default
FNF:8
FNH:0
DA:14,0
DA:15,0
DA:16,0
DA:19,0
DA:20,0
DA:21,0
DA:24,0
DA:27,0
DA:28,0
DA:29,0
DA:33,0
DA:34,0
DA:35,0
DA:49,0
DA:50,0
DA:51,0
DA:52,0
DA:53,0
DA:54,0
DA:55,0
DA:56,0
DA:57,0
DA:62,0
DA:63,0
DA:64,0
DA:65,0
DA:66,0
DA:67,0
DA:68,0
DA:69,0
DA:70,0
DA:75,0
DA:76,0
DA:77,0
DA:78,0
DA:79,0
DA:82,0
DA:83,0
DA:84,0
DA:85,0
DA:86,0
BRF:0
BRH:0
LF:41
LH:0
end_of_record
SF:/Users/sac/chicago-tdd-tools/src/guards.rs
FN:74,_RNvMs_NtCsgN1vMD0IGXY_17chicago_tdd_tools6guardsNtB4_14GuardValidator16validate_run_len
FN:97,_RNvMs_NtCsgN1vMD0IGXY_17chicago_tdd_tools6guardsNtB4_14GuardValidator19validate_batch_size
FN:45,_RNvMs_NtCsgN1vMD0IGXY_17chicago_tdd_tools6guardsNtB4_14GuardValidator3new
FN:53,_RNvMs_NtCsgN1vMD0IGXY_17chicago_tdd_tools6guardsNtB4_14GuardValidator16with_constraints
FN:38,_RNvXNtCsgN1vMD0IGXY_17chicago_tdd_tools6guardsNtB2_14GuardValidatorNtNtCs2CqrNpCrSUr_4core7default7Default7default
FN:191,_RNvNtNtCsgN1vMD0IGXY_17chicago_tdd_tools6guards5testss_17test_validate_run
FN:201,_RNvNtNtCsgN1vMD0IGXY_17chicago_tdd_tools6guards5testss_19test_validate_batch
FN:211,_RNvNtNtCsgN1vMD0IGXY_17chicago_tdd_tools6guards5testss_25test_assert_guard_run_len
FN:161,_RNvNtNtCsgN1vMD0IGXY_17chicago_tdd_tools6guards5testss_27test_validate_run_len_valid
FN:224,_RNvNtNtCsgN1vMD0IGXY_17chicago_tdd_tools6guards5testss_28test_assert_guard_batch_size
FN:169,_RNvNtNtCsgN1vMD0IGXY_17chicago_tdd_tools6guards5testss_29test_validate_run_len_exceeds
FN:176,_RNvNtNtCsgN1vMD0IGXY_17chicago_tdd_tools6guards5testss_30test_validate_batch_size_valid
FN:218,_RNvNtNtCsgN1vMD0IGXY_17chicago_tdd_tools6guards5testss_32test_assert_guard_run_len_panics
FN:184,_RNvNtNtCsgN1vMD0IGXY_17chicago_tdd_tools6guards5testss_32test_validate_batch_size_exceeds
FN:231,_RNvNtNtCsgN1vMD0IGXY_17chicago_tdd_tools6guards5testss_35test_assert_guard_batch_size_panics
FN:110,_RINvMs_NtCsgN1vMD0IGXY_17chicago_tdd_tools6guardsNtB5_14GuardValidator12validate_runlEB7_
FN:117,_RINvMs_NtCsgN1vMD0IGXY_17chicago_tdd_tools6guardsNtB5_14GuardValidator14validate_batchlEB7_
FN:132,_RINvNtCsgN1vMD0IGXY_17chicago_tdd_tools6guards20assert_guard_run_lenlEB4_
FN:149,_RINvNtCsgN1vMD0IGXY_17chicago_tdd_tools6guards23assert_guard_batch_sizelEB4_
FN:134,_RNCINvNtCsgN1vMD0IGXY_17chicago_tdd_tools6guards20assert_guard_run_lenlE0B6_
FN:151,_RNCINvNtCsgN1vMD0IGXY_17chicago_tdd_tools6guards23assert_guard_batch_sizelE0B6_
FNDA:9,_RNvMs_NtCsgN1vMD0IGXY_17chicago_tdd_tools6guardsNtB4_14GuardValidator16validate_run_len
FNDA:9,_RNvMs_NtCsgN1vMD0IGXY_17chicago_tdd_tools6guardsNtB4_14GuardValidator19validate_batch_size
FNDA:10,_RNvMs_NtCsgN1vMD0IGXY_17chicago_tdd_tools6guardsNtB4_14GuardValidator3new
FNDA:0,_RNvMs_NtCsgN1vMD0IGXY_17chicago_tdd_tools6guardsNtB4_14GuardValidator16with_constraints
FNDA:0,_RNvXNtCsgN1vMD0IGXY_17chicago_tdd_tools6guardsNtB2_14GuardValidatorNtNtCs2CqrNpCrSUr_4core7default7Default7default
FNDA:1,_RNvNtNtCsgN1vMD0IGXY_17chicago_tdd_tools6guards5testss_17test_validate_run
FNDA:1,_RNvNtNtCsgN1vMD0IGXY_17chicago_tdd_tools6guards5testss_19test_validate_batch
FNDA:1,_RNvNtNtCsgN1vMD0IGXY_17chicago_tdd_tools6guards5testss_25test_assert_guard_run_len
FNDA:1,_RNvNtNtCsgN1vMD0IGXY_17chicago_tdd_tools6guards5testss_27test_validate_run_len_valid
FNDA:1,_RNvNtNtCsgN1vMD0IGXY_17chicago_tdd_tools6guards5testss_28test_assert_guard_batch_size
FNDA:1,_RNvNtNtCsgN1vMD0IGXY_17chicago_tdd_tools6guards5testss_29test_validate_run_len_exceeds
FNDA:1,_RNvNtNtCsgN1vMD0IGXY_17chicago_tdd_tools6guards5testss_30test_validate_batch_size_valid
FNDA:1,_RNvNtNtCsgN1vMD0IGXY_17chicago_tdd_tools6guards5testss_32test_assert_guard_run_len_panics
FNDA:1,_RNvNtNtCsgN1vMD0IGXY_17chicago_tdd_tools6guards5testss_32test_validate_batch_size_exceeds
FNDA:1,_RNvNtNtCsgN1vMD0IGXY_17chicago_tdd_tools6guards5testss_35test_assert_guard_batch_size_panics
FNDA:4,_RINvMs_NtCsgN1vMD0IGXY_17chicago_tdd_tools6guardsNtB5_14GuardValidator12validate_runlEB7_
FNDA:4,_RINvMs_NtCsgN1vMD0IGXY_17chicago_tdd_tools6guardsNtB5_14GuardValidator14validate_batchlEB7_
FNDA:2,_RINvNtCsgN1vMD0IGXY_17chicago_tdd_tools6guards20assert_guard_run_lenlEB4_
FNDA:2,_RINvNtCsgN1vMD0IGXY_17chicago_tdd_tools6guards23assert_guard_batch_sizelEB4_
FNDA:1,_RNCINvNtCsgN1vMD0IGXY_17chicago_tdd_tools6guards20assert_guard_run_lenlE0B6_
FNDA:1,_RNCINvNtCsgN1vMD0IGXY_17chicago_tdd_tools6guards23assert_guard_batch_sizelE0B6_
FNF:21
FNH:19
DA:38,0
DA:39,0
DA:40,0
DA:45,10
DA:46,10
DA:47,10
DA:48,10
DA:49,10
DA:50,10
DA:53,0
DA:54,0
DA:55,0
DA:56,0
DA:57,0
DA:58,0
DA:74,9
DA:75,9
DA:76,4
DA:77,4
DA:78,4
DA:79,4
DA:80,5
DA:81,5
DA:82,9
DA:97,9
DA:98,9
DA:99,4
DA:100,4
DA:101,4
DA:102,4
DA:103,5
DA:104,5
DA:105,9
DA:110,4
DA:111,4
DA:112,4
DA:117,4
DA:118,4
DA:119,4
DA:132,2
DA:133,2
DA:134,2
DA:135,1
DA:137,2
DA:149,2
DA:150,2
DA:151,2
DA:152,1
DA:154,2
DA:161,1
DA:162,1
DA:163,1
DA:164,1
DA:165,1
DA:166,1
DA:169,1
DA:170,1
DA:171,1
DA:172,1
DA:173,1
DA:176,1
DA:177,1
DA:178,1
DA:179,1
DA:180,1
DA:181,1
DA:184,1
DA:185,1
DA:186,1
DA:187,1
DA:188,1
DA:191,1
DA:192,1
DA:193,1
DA:194,1
DA:196,1
DA:197,1
DA:198,1
DA:201,1
DA:202,1
DA:203,1
DA:204,1
DA:206,1
DA:207,1
DA:208,1
DA:211,1
DA:212,1
DA:213,1
DA:214,1
DA:218,1
DA:219,1
DA:220,1
DA:221,1
DA:224,1
DA:225,1
DA:226,1
DA:227,1
DA:231,1
DA:232,1
DA:233,1
DA:234,1
BRF:0
BRH:0
LF:103
LH:94
end_of_record
SF:/Users/sac/chicago-tdd-tools/src/jtbd.rs
FN:323,_RNvNtNtCsgN1vMD0IGXY_17chicago_tdd_tools4jtbd5testss_28test_jtbd_validation_summary
FN:302,_RNvNtNtCsgN1vMD0IGXY_17chicago_tdd_tools4jtbd5testss_28test_jtbd_validator_creation
FN:308,_RNvNtNtCsgN1vMD0IGXY_17chicago_tdd_tools4jtbd5testss_31test_jtbd_scenario_registration
FN:82,_RNvMNtCsgN1vMD0IGXY_17chicago_tdd_tools4jtbdNtB2_20JtbdValidationResult7failure
FN:69,_RNvMNtCsgN1vMD0IGXY_17chicago_tdd_tools4jtbdNtB2_20JtbdValidationResult7success
FN:237,_RNvMs0_NtCsgN1vMD0IGXY_17chicago_tdd_tools4jtbdNtB5_13JtbdValidator11get_summary
FN:224,_RNvMs0_NtCsgN1vMD0IGXY_17chicago_tdd_tools4jtbdNtB5_13JtbdValidator12validate_all
FN:180,_RNvMs0_NtCsgN1vMD0IGXY_17chicago_tdd_tools4jtbdNtB5_13JtbdValidator17validate_scenario
FN:132,_RNvMs_NtCsgN1vMD0IGXY_17chicago_tdd_tools4jtbdNtB4_15ExecutionResult3err
FN:260,_RNvXs1_NtCsgN1vMD0IGXY_17chicago_tdd_tools4jtbdNtB5_13JtbdValidatorNtNtCs2CqrNpCrSUr_4core7default7Default7default
FN:314,_RNCNvNtNtCsgN1vMD0IGXY_17chicago_tdd_tools4jtbd5testss_31test_jtbd_scenario_registration0B7_
FN:175,_RNvMs0_NtCsgN1vMD0IGXY_17chicago_tdd_tools4jtbdNtB5_13JtbdValidator17register_scenario
FN:168,_RNvMs0_NtCsgN1vMD0IGXY_17chicago_tdd_tools4jtbdNtB5_13JtbdValidator3new
FN:284,_RNvMs2_NtCsgN1vMD0IGXY_17chicago_tdd_tools4jtbdNtB5_21JtbdValidationSummary10all_passed
FN:289,_RNvMs2_NtCsgN1vMD0IGXY_17chicago_tdd_tools4jtbdNtB5_21JtbdValidationSummary9pass_rate
FN:123,_RNvMs_NtCsgN1vMD0IGXY_17chicago_tdd_tools4jtbdNtB4_15ExecutionResult2ok
FNDA:1,_RNvNtNtCsgN1vMD0IGXY_17chicago_tdd_tools4jtbd5testss_28test_jtbd_validation_summary
FNDA:1,_RNvNtNtCsgN1vMD0IGXY_17chicago_tdd_tools4jtbd5testss_28test_jtbd_validator_creation
FNDA:1,_RNvNtNtCsgN1vMD0IGXY_17chicago_tdd_tools4jtbd5testss_31test_jtbd_scenario_registration
FNDA:0,_RNvMNtCsgN1vMD0IGXY_17chicago_tdd_tools4jtbdNtB2_20JtbdValidationResult7failure
FNDA:0,_RNvMNtCsgN1vMD0IGXY_17chicago_tdd_tools4jtbdNtB2_20JtbdValidationResult7success
FNDA:0,_RNvMs0_NtCsgN1vMD0IGXY_17chicago_tdd_tools4jtbdNtB5_13JtbdValidator11get_summary
FNDA:0,_RNvMs0_NtCsgN1vMD0IGXY_17chicago_tdd_tools4jtbdNtB5_13JtbdValidator12validate_all
FNDA:0,_RNvMs0_NtCsgN1vMD0IGXY_17chicago_tdd_tools4jtbdNtB5_13JtbdValidator17validate_scenario
FNDA:0,_RNvMs_NtCsgN1vMD0IGXY_17chicago_tdd_tools4jtbdNtB4_15ExecutionResult3err
FNDA:0,_RNvXs1_NtCsgN1vMD0IGXY_17chicago_tdd_tools4jtbdNtB5_13JtbdValidatorNtNtCs2CqrNpCrSUr_4core7default7Default7default
FNDA:0,_RNCNvNtNtCsgN1vMD0IGXY_17chicago_tdd_tools4jtbd5testss_31test_jtbd_scenario_registration0B7_
FNDA:1,_RNvMs0_NtCsgN1vMD0IGXY_17chicago_tdd_tools4jtbdNtB5_13JtbdValidator17register_scenario
FNDA:2,_RNvMs0_NtCsgN1vMD0IGXY_17chicago_tdd_tools4jtbdNtB5_13JtbdValidator3new
FNDA:1,_RNvMs2_NtCsgN1vMD0IGXY_17chicago_tdd_tools4jtbdNtB5_21JtbdValidationSummary10all_passed
FNDA:1,_RNvMs2_NtCsgN1vMD0IGXY_17chicago_tdd_tools4jtbdNtB5_21JtbdValidationSummary9pass_rate
FNDA:0,_RNvMs_NtCsgN1vMD0IGXY_17chicago_tdd_tools4jtbdNtB4_15ExecutionResult2ok
FNF:16
FNH:7
DA:69,0
DA:70,0
DA:71,0
DA:72,0
DA:73,0
DA:74,0
DA:75,0
DA:76,0
DA:77,0
DA:78,0
DA:79,0
DA:82,0
DA:83,0
DA:84,0
DA:85,0
DA:86,0
DA:87,0
DA:88,0
DA:89,0
DA:90,0
DA:91,0
DA:92,0
DA:93,0
DA:94,0
DA:95,0
DA:96,0
DA:97,0
DA:98,0
DA:123,0
DA:124,0
DA:125,0
DA:126,0
DA:127,0
DA:128,0
DA:129,0
DA:132,0
DA:133,0
DA:134,0
DA:135,0
DA:136,0
DA:137,0
DA:138,0
DA:139,0
DA:140,0
DA:168,2
DA:169,2
DA:170,2
DA:171,2
DA:172,2
DA:175,1
DA:176,1
DA:177,1
DA:180,0
DA:181,0
DA:184,0
DA:187,0
DA:188,0
DA:189,0
DA:192,0
DA:194,0
DA:195,0
DA:196,0
DA:197,0
DA:198,0
DA:199,0
DA:200,0
DA:201,0
DA:202,0
DA:204,0
DA:205,0
DA:207,0
DA:210,0
DA:211,0
DA:212,0
DA:213,0
DA:214,0
DA:215,0
DA:216,0
DA:217,0
DA:218,0
DA:219,0
DA:221,0
DA:224,0
DA:225,0
DA:227,0
DA:228,0
DA:229,0
DA:230,0
DA:233,0
DA:234,0
DA:237,0
DA:238,0
DA:239,0
DA:240,0
DA:241,0
DA:242,0
DA:245,0
DA:246,0
DA:247,0
DA:248,0
DA:249,0
DA:250,0
DA:251,0
DA:253,0
DA:256,0
DA:260,0
DA:261,0
DA:262,0
DA:284,1
DA:285,1
DA:286,1
DA:289,1
DA:290,1
DA:291,0
DA:292,1
DA:293,1
DA:294,1
DA:302,1
DA:303,1
DA:304,1
DA:305,1
DA:308,1
DA:309,1
DA:311,1
DA:312,1
DA:313,1
DA:314,1
DA:315,1
DA:316,1
DA:319,1
DA:320,1
DA:323,1
DA:324,1
DA:325,1
DA:326,1
DA:327,1
DA:328,1
DA:329,1
DA:330,1
DA:331,1
DA:333,1
DA:334,1
DA:335,1
BRF:0
BRH:0
LF:144
LH:42
end_of_record
SF:/Users/sac/chicago-tdd-tools/src/macros.rs
FN:471,_RNvNtNtCsgN1vMD0IGXY_17chicago_tdd_tools6macros5testss_26test_assert_ok_macro_fails
FN:490,_RNvNtNtCsgN1vMD0IGXY_17chicago_tdd_tools6macros5testss_27test_assert_err_macro_fails
FN:565,_RNvNtNtCsgN1vMD0IGXY_17chicago_tdd_tools6macros5testss_30test_assert_eq_msg_macro_fails
FN:447,_RNvNtNtCsgN1vMD0IGXY_17chicago_tdd_tools6macros5testss_31test_chicago_fixture_test_macro
FN:421,_RNvNtNtCsgN1vMD0IGXY_17chicago_tdd_tools6macros5testss_33test_chicago_test_macro_expansion
FN:546,_RNvNtNtCsgN1vMD0IGXY_17chicago_tdd_tools6macros5testss_38test_assert_in_range_macro_fails_above
FN:536,_RNvNtNtCsgN1vMD0IGXY_17chicago_tdd_tools6macros5testss_38test_assert_in_range_macro_fails_below
FN:434,_RNvNtNtCsgN1vMD0IGXY_17chicago_tdd_tools6macros5testss_39test_chicago_async_test_macro_expansion
FN:585,_RNvNtNtCsgN1vMD0IGXY_17chicago_tdd_tools6macros5testss_40test_assert_guard_constraint_macro_fails
FN:513,_RNvNtNtCsgN1vMD0IGXY_17chicago_tdd_tools6macros5testss_42test_assert_within_tick_budget_macro_fails
FN:146,_RNCNCNvNCNvNtNtCsgN1vMD0IGXY_17chicago_tdd_tools6macros5testss_31test_chicago_fixture_test_macro0s_18test_fixture_basic00Bd_
FN:149,_RNCNCNvNCNvNtNtCsgN1vMD0IGXY_17chicago_tdd_tools6macros5testss_31test_chicago_fixture_test_macro0s_18test_fixture_basic0s_0Bd_
FN:141,_RNCNvNCNvNtNtCsgN1vMD0IGXY_17chicago_tdd_tools6macros5testss_31test_chicago_fixture_test_macro0s_18test_fixture_basic0Bb_
FN:141,_RNvNCNvNtNtCsgN1vMD0IGXY_17chicago_tdd_tools6macros5testss_31test_chicago_fixture_test_macro0s_18test_fixture_basic
FNDA:1,_RNvNtNtCsgN1vMD0IGXY_17chicago_tdd_tools6macros5testss_26test_assert_ok_macro_fails
FNDA:1,_RNvNtNtCsgN1vMD0IGXY_17chicago_tdd_tools6macros5testss_27test_assert_err_macro_fails
FNDA:1,_RNvNtNtCsgN1vMD0IGXY_17chicago_tdd_tools6macros5testss_30test_assert_eq_msg_macro_fails
FNDA:1,_RNvNtNtCsgN1vMD0IGXY_17chicago_tdd_tools6macros5testss_31test_chicago_fixture_test_macro
FNDA:1,_RNvNtNtCsgN1vMD0IGXY_17chicago_tdd_tools6macros5testss_33test_chicago_test_macro_expansion
FNDA:1,_RNvNtNtCsgN1vMD0IGXY_17chicago_tdd_tools6macros5testss_38test_assert_in_range_macro_fails_above
FNDA:1,_RNvNtNtCsgN1vMD0IGXY_17chicago_tdd_tools6macros5testss_38test_assert_in_range_macro_fails_below
FNDA:1,_RNvNtNtCsgN1vMD0IGXY_17chicago_tdd_tools6macros5testss_39test_chicago_async_test_macro_expansion
FNDA:1,_RNvNtNtCsgN1vMD0IGXY_17chicago_tdd_tools6macros5testss_40test_assert_guard_constraint_macro_fails
FNDA:1,_RNvNtNtCsgN1vMD0IGXY_17chicago_tdd_tools6macros5testss_42test_assert_within_tick_budget_macro_fails
FNDA:0,_RNCNCNvNCNvNtNtCsgN1vMD0IGXY_17chicago_tdd_tools6macros5testss_31test_chicago_fixture_test_macro0s_18test_fixture_basic00Bd_
FNDA:0,_RNCNCNvNCNvNtNtCsgN1vMD0IGXY_17chicago_tdd_tools6macros5testss_31test_chicago_fixture_test_macro0s_18test_fixture_basic0s_0Bd_
FNDA:0,_RNCNvNCNvNtNtCsgN1vMD0IGXY_17chicago_tdd_tools6macros5testss_31test_chicago_fixture_test_macro0s_18test_fixture_basic0Bb_
FNDA:0,_RNvNCNvNtNtCsgN1vMD0IGXY_17chicago_tdd_tools6macros5testss_31test_chicago_fixture_test_macro0s_18test_fixture_basic
FNF:14
FNH:10
DA:141,0
DA:145,0
DA:146,0
DA:149,0
DA:151,0
DA:152,0
DA:153,0
DA:154,0
DA:155,0
DA:156,0
DA:157,0
DA:158,0
DA:161,0
DA:421,1
DA:424,1
DA:431,1
DA:434,1
DA:436,1
DA:443,1
DA:447,1
DA:448,1
DA:449,1
DA:450,1
DA:451,1
DA:452,1
DA:453,1
DA:454,1
DA:455,1
DA:456,1
DA:457,1
DA:458,1
DA:471,1
DA:473,1
DA:476,1
DA:477,0
DA:490,1
DA:492,1
DA:495,1
DA:496,0
DA:513,1
DA:515,1
DA:518,1
DA:519,0
DA:536,1
DA:538,1
DA:541,1
DA:542,0
DA:546,1
DA:548,1
DA:551,1
DA:552,0
DA:565,1
DA:567,1
DA:568,1
DA:571,1
DA:572,0
DA:585,1
DA:587,1
DA:590,1
DA:591,0
BRF:0
BRH:0
LF:68
LH:40
end_of_record
SF:/Users/sac/chicago-tdd-tools/src/mutation.rs
FN:66,_RINvMNtCsgN1vMD0IGXY_17chicago_tdd_tools8mutationNtB3_14MutationTester23test_mutation_detectionpEB5_
FN:41,_RNvMNtCsgN1vMD0IGXY_17chicago_tdd_tools8mutationNtB2_14MutationTester11mutate_data
FN:36,_RNvMNtCsgN1vMD0IGXY_17chicago_tdd_tools8mutationNtB2_14MutationTester14apply_mutation
FN:28,_RNvMNtCsgN1vMD0IGXY_17chicago_tdd_tools8mutationNtB2_14MutationTester3new
FN:123,_RNvMs_NtCsgN1vMD0IGXY_17chicago_tdd_tools8mutationNtB4_13MutationScore13is_acceptable
FN:118,_RNvMs_NtCsgN1vMD0IGXY_17chicago_tdd_tools8mutationNtB4_13MutationScore5score
FN:103,_RNvMs_NtCsgN1vMD0IGXY_17chicago_tdd_tools8mutationNtB4_13MutationScore9calculate
FNDA:0,_RINvMNtCsgN1vMD0IGXY_17chicago_tdd_tools8mutationNtB3_14MutationTester23test_mutation_detectionpEB5_
FNDA:0,_RNvMNtCsgN1vMD0IGXY_17chicago_tdd_tools8mutationNtB2_14MutationTester11mutate_data
FNDA:0,_RNvMNtCsgN1vMD0IGXY_17chicago_tdd_tools8mutationNtB2_14MutationTester14apply_mutation
FNDA:0,_RNvMNtCsgN1vMD0IGXY_17chicago_tdd_tools8mutationNtB2_14MutationTester3new
FNDA:0,_RNvMs_NtCsgN1vMD0IGXY_17chicago_tdd_tools8mutationNtB4_13MutationScore13is_acceptable
FNDA:0,_RNvMs_NtCsgN1vMD0IGXY_17chicago_tdd_tools8mutationNtB4_13MutationScore5score
FNDA:0,_RNvMs_NtCsgN1vMD0IGXY_17chicago_tdd_tools8mutationNtB4_13MutationScore9calculate
FNF:7
FNH:0
DA:28,0
DA:29,0
DA:30,0
DA:31,0
DA:32,0
DA:33,0
DA:36,0
DA:37,0
DA:38,0
DA:39,0
DA:41,0
DA:42,0
DA:43,0
DA:44,0
DA:45,0
DA:46,0
DA:48,0
DA:49,0
DA:50,0
DA:51,0
DA:52,0
DA:53,0
DA:54,0
DA:55,0
DA:56,0
DA:57,0
DA:58,0
DA:62,0
DA:63,0
DA:66,0
DA:67,0
DA:68,0
DA:71,0
DA:72,0
DA:73,0
DA:76,0
DA:77,0
DA:78,0
DA:79,0
DA:81,0
DA:82,0
DA:85,0
DA:86,0
DA:103,0
DA:104,0
DA:105,0
DA:107,0
DA:110,0
DA:111,0
DA:112,0
DA:113,0
DA:114,0
DA:115,0
DA:118,0
DA:119,0
DA:120,0
DA:123,0
DA:124,0
DA:125,0
BRF:0
BRH:0
LF:59
LH:0
end_of_record
SF:/Users/sac/chicago-tdd-tools/src/otel.rs
FN:327,_RNvNtNtCsgN1vMD0IGXY_17chicago_tdd_tools4otel5testss_30test_span_validator_empty_name
FN:281,_RNvNtNtCsgN1vMD0IGXY_17chicago_tdd_tools4otel5testss_30test_span_validator_valid_span
FN:367,_RNvNtNtCsgN1vMD0IGXY_17chicago_tdd_tools4otel5testss_32test_metric_validator_empty_name
FN:303,_RNvNtNtCsgN1vMD0IGXY_17chicago_tdd_tools4otel5testss_32test_span_validator_zero_span_id
FN:351,_RNvNtNtCsgN1vMD0IGXY_17chicago_tdd_tools4otel5testss_34test_metric_validator_valid_metric
FN:211,_RNCNvMs1_NtCsgN1vMD0IGXY_17chicago_tdd_tools4otelNtB7_15MetricValidator16validate_metrics0B9_
FN:262,_RNCNvMs3_NtCsgN1vMD0IGXY_17chicago_tdd_tools4otelNtB7_14OtelTestHelper18assert_spans_valid0B9_
FN:269,_RNCNvMs3_NtCsgN1vMD0IGXY_17chicago_tdd_tools4otelNtB7_14OtelTestHelper20assert_metrics_valid0B9_
FN:255,_RNCNvMs3_NtCsgN1vMD0IGXY_17chicago_tdd_tools4otelNtB7_14OtelTestHelper23validate_tracer_metrics0B9_
FN:123,_RNCNvMs_NtCsgN1vMD0IGXY_17chicago_tdd_tools4otelNtB6_13SpanValidator14validate_spans0B8_
FN:209,_RNvMs1_NtCsgN1vMD0IGXY_17chicago_tdd_tools4otelNtB5_15MetricValidator16validate_metrics
FN:158,_RNvMs1_NtCsgN1vMD0IGXY_17chicago_tdd_tools4otelNtB5_15MetricValidator24with_required_attributes
FN:259,_RNvMs3_NtCsgN1vMD0IGXY_17chicago_tdd_tools4otelNtB5_14OtelTestHelper18assert_spans_valid
FN:266,_RNvMs3_NtCsgN1vMD0IGXY_17chicago_tdd_tools4otelNtB5_14OtelTestHelper20assert_metrics_valid
FN:247,_RNvMs3_NtCsgN1vMD0IGXY_17chicago_tdd_tools4otelNtB5_14OtelTestHelper21validate_tracer_spans
FN:253,_RNvMs3_NtCsgN1vMD0IGXY_17chicago_tdd_tools4otelNtB5_14OtelTestHelper23validate_tracer_metrics
FN:239,_RNvMs3_NtCsgN1vMD0IGXY_17chicago_tdd_tools4otelNtB5_14OtelTestHelper3new
FN:121,_RNvMs_NtCsgN1vMD0IGXY_17chicago_tdd_tools4otelNtB4_13SpanValidator14validate_spans
FN:66,_RNvMs_NtCsgN1vMD0IGXY_17chicago_tdd_tools4otelNtB4_13SpanValidator24with_required_attributes
FN:72,_RNvMs_NtCsgN1vMD0IGXY_17chicago_tdd_tools4otelNtB4_13SpanValidator27with_non_zero_id_validation
FN:50,_RNvXNtCsgN1vMD0IGXY_17chicago_tdd_tools4otelNtB2_13SpanValidatorNtNtCs2CqrNpCrSUr_4core7default7Default7default
FN:143,_RNvXs0_NtCsgN1vMD0IGXY_17chicago_tdd_tools4otelNtB5_15MetricValidatorNtNtCs2CqrNpCrSUr_4core7default7Default7default
FN:231,_RNvXs2_NtCsgN1vMD0IGXY_17chicago_tdd_tools4otelNtB5_14OtelTestHelperNtNtCs2CqrNpCrSUr_4core7default7Default7default
FN:151,_RNvMs1_NtCsgN1vMD0IGXY_17chicago_tdd_tools4otelNtB5_15MetricValidator3new
FN:164,_RNvMs1_NtCsgN1vMD0IGXY_17chicago_tdd_tools4otelNtB5_15MetricValidator8validate
FN:58,_RNvMs_NtCsgN1vMD0IGXY_17chicago_tdd_tools4otelNtB4_13SpanValidator3new
FN:78,_RNvMs_NtCsgN1vMD0IGXY_17chicago_tdd_tools4otelNtB4_13SpanValidator8validate
FNDA:1,_RNvNtNtCsgN1vMD0IGXY_17chicago_tdd_tools4otel5testss_30test_span_validator_empty_name
FNDA:1,_RNvNtNtCsgN1vMD0IGXY_17chicago_tdd_tools4otel5testss_30test_span_validator_valid_span
FNDA:1,_RNvNtNtCsgN1vMD0IGXY_17chicago_tdd_tools4otel5testss_32test_metric_validator_empty_name
FNDA:1,_RNvNtNtCsgN1vMD0IGXY_17chicago_tdd_tools4otel5testss_32test_span_validator_zero_span_id
FNDA:1,_RNvNtNtCsgN1vMD0IGXY_17chicago_tdd_tools4otel5testss_34test_metric_validator_valid_metric
FNDA:0,_RNCNvMs1_NtCsgN1vMD0IGXY_17chicago_tdd_tools4otelNtB7_15MetricValidator16validate_metrics0B9_
FNDA:0,_RNCNvMs3_NtCsgN1vMD0IGXY_17chicago_tdd_tools4otelNtB7_14OtelTestHelper18assert_spans_valid0B9_
FNDA:0,_RNCNvMs3_NtCsgN1vMD0IGXY_17chicago_tdd_tools4otelNtB7_14OtelTestHelper20assert_metrics_valid0B9_
FNDA:0,_RNCNvMs3_NtCsgN1vMD0IGXY_17chicago_tdd_tools4otelNtB7_14OtelTestHelper23validate_tracer_metrics0B9_
FNDA:0,_RNCNvMs_NtCsgN1vMD0IGXY_17chicago_tdd_tools4otelNtB6_13SpanValidator14validate_spans0B8_
FNDA:0,_RNvMs1_NtCsgN1vMD0IGXY_17chicago_tdd_tools4otelNtB5_15MetricValidator16validate_metrics
FNDA:0,_RNvMs1_NtCsgN1vMD0IGXY_17chicago_tdd_tools4otelNtB5_15MetricValidator24with_required_attributes
FNDA:0,_RNvMs3_NtCsgN1vMD0IGXY_17chicago_tdd_tools4otelNtB5_14OtelTestHelper18assert_spans_valid
FNDA:0,_RNvMs3_NtCsgN1vMD0IGXY_17chicago_tdd_tools4otelNtB5_14OtelTestHelper20assert_metrics_valid
FNDA:0,_RNvMs3_NtCsgN1vMD0IGXY_17chicago_tdd_tools4otelNtB5_14OtelTestHelper21validate_tracer_spans
FNDA:0,_RNvMs3_NtCsgN1vMD0IGXY_17chicago_tdd_tools4otelNtB5_14OtelTestHelper23validate_tracer_metrics
FNDA:0,_RNvMs3_NtCsgN1vMD0IGXY_17chicago_tdd_tools4otelNtB5_14OtelTestHelper3new
FNDA:0,_RNvMs_NtCsgN1vMD0IGXY_17chicago_tdd_tools4otelNtB4_13SpanValidator14validate_spans
FNDA:0,_RNvMs_NtCsgN1vMD0IGXY_17chicago_tdd_tools4otelNtB4_13SpanValidator24with_required_attributes
FNDA:0,_RNvMs_NtCsgN1vMD0IGXY_17chicago_tdd_tools4otelNtB4_13SpanValidator27with_non_zero_id_validation
FNDA:0,_RNvXNtCsgN1vMD0IGXY_17chicago_tdd_tools4otelNtB2_13SpanValidatorNtNtCs2CqrNpCrSUr_4core7default7Default7default
FNDA:0,_RNvXs0_NtCsgN1vMD0IGXY_17chicago_tdd_tools4otelNtB5_15MetricValidatorNtNtCs2CqrNpCrSUr_4core7default7Default7default
FNDA:0,_RNvXs2_NtCsgN1vMD0IGXY_17chicago_tdd_tools4otelNtB5_14OtelTestHelperNtNtCs2CqrNpCrSUr_4core7default7Default7default
FNDA:2,_RNvMs1_NtCsgN1vMD0IGXY_17chicago_tdd_tools4otelNtB5_15MetricValidator3new
FNDA:2,_RNvMs1_NtCsgN1vMD0IGXY_17chicago_tdd_tools4otelNtB5_15MetricValidator8validate
FNDA:3,_RNvMs_NtCsgN1vMD0IGXY_17chicago_tdd_tools4otelNtB4_13SpanValidator3new
FNDA:3,_RNvMs_NtCsgN1vMD0IGXY_17chicago_tdd_tools4otelNtB4_13SpanValidator8validate
FNF:27
FNH:9
DA:50,0
DA:51,0
DA:52,0
DA:58,3
DA:59,3
DA:60,3
DA:61,3
DA:62,3
DA:63,3
DA:66,0
DA:67,0
DA:68,0
DA:69,0
DA:72,0
DA:73,0
DA:74,0
DA:75,0
DA:78,3
DA:80,3
DA:81,1
DA:82,1
DA:83,1
DA:84,2
DA:87,2
DA:88,0
DA:89,0
DA:90,0
DA:91,2
DA:94,2
DA:95,1
DA:96,1
DA:97,1
DA:98,1
DA:101,1
DA:102,0
DA:103,0
DA:104,0
DA:108,1
DA:109,1
DA:110,0
DA:111,0
DA:112,0
DA:113,0
DA:114,1
DA:115,0
DA:117,1
DA:118,3
DA:121,0
DA:122,0
DA:123,0
DA:124,0
DA:125,0
DA:126,0
DA:127,0
DA:128,0
DA:130,0
DA:131,0
DA:143,0
DA:144,0
DA:145,0
DA:151,2
DA:152,2
DA:153,2
DA:154,2
DA:155,2
DA:158,0
DA:159,0
DA:160,0
DA:161,0
DA:164,2
DA:166,2
DA:167,1
DA:168,1
DA:169,1
DA:170,1
DA:173,1
DA:174,0
DA:175,0
DA:176,0
DA:180,1
DA:181,1
DA:182,1
DA:183,0
DA:184,0
DA:185,1
DA:187,0
DA:188,0
DA:189,0
DA:190,0
DA:191,0
DA:192,0
DA:193,0
DA:195,0
DA:196,0
DA:197,0
DA:198,0
DA:199,0
DA:200,0
DA:201,0
DA:205,1
DA:206,2
DA:209,0
DA:210,0
DA:211,0
DA:212,0
DA:213,0
DA:214,0
DA:215,0
DA:216,0
DA:218,0
DA:219,0
DA:231,0
DA:232,0
DA:233,0
DA:239,0
DA:240,0
DA:241,0
DA:242,0
DA:243,0
DA:244,0
DA:247,0
DA:248,0
DA:249,0
DA:250,0
DA:253,0
DA:254,0
DA:255,0
DA:256,0
DA:259,0
DA:260,0
DA:261,0
DA:262,0
DA:263,0
DA:266,0
DA:267,0
DA:268,0
DA:269,0
DA:270,0
DA:281,1
DA:282,1
DA:283,1
DA:284,1
DA:285,1
DA:286,1
DA:287,1
DA:288,1
DA:289,1
DA:290,1
DA:291,1
DA:292,1
DA:293,1
DA:294,1
DA:295,1
DA:296,1
DA:298,1
DA:299,1
DA:303,1
DA:306,1
DA:307,1
DA:308,1
DA:309,1
DA:310,1
DA:311,1
DA:312,1
DA:313,1
DA:314,1
DA:315,1
DA:316,1
DA:317,1
DA:318,1
DA:319,1
DA:320,1
DA:322,1
DA:323,1
DA:327,1
DA:330,1
DA:331,1
DA:332,1
DA:333,1
DA:334,1
DA:335,1
DA:336,1
DA:337,1
DA:338,1
DA:339,1
DA:340,1
DA:341,1
DA:342,1
DA:343,1
DA:344,1
DA:346,1
DA:347,1
DA:351,1
DA:354,1
DA:355,1
DA:356,1
DA:357,1
DA:358,1
DA:359,1
DA:360,1
DA:362,1
DA:363,1
DA:367,1
DA:370,1
DA:371,1
DA:372,1
DA:373,1
DA:374,1
DA:375,1
DA:376,1
DA:378,1
DA:379,1
BRF:0
BRH:0
LF:219
LH:117
end_of_record
SF:/Users/sac/chicago-tdd-tools/src/performance.rs
FN:46,_RNvMNtCsgN1vMD0IGXY_17chicago_tdd_tools11performanceNtB2_11TickCounter10read_ticks
FN:75,_RNvMNtCsgN1vMD0IGXY_17chicago_tdd_tools11performanceNtB2_11TickCounter13elapsed_ticks
FN:85,_RNvMNtCsgN1vMD0IGXY_17chicago_tdd_tools11performanceNtB2_11TickCounter20assert_within_budget
FN:39,_RNvMNtCsgN1vMD0IGXY_17chicago_tdd_tools11performanceNtB2_11TickCounter5start
FN:342,_RNvNtNtCsgN1vMD0IGXY_17chicago_tdd_tools11performance5testss_14test_benchmark
FN:334,_RNvNtNtCsgN1vMD0IGXY_17chicago_tdd_tools11performance5testss_18test_measure_ticks
FN:351,_RNvNtNtCsgN1vMD0IGXY_17chicago_tdd_tools11performance5testss_18test_tick_measurer
FN:317,_RNvNtNtCsgN1vMD0IGXY_17chicago_tdd_tools11performance5testss_23test_tick_counter_basic
FN:326,_RNvNtNtCsgN1vMD0IGXY_17chicago_tdd_tools11performance5testss_31test_tick_counter_within_budget
FN:168,_RINvMs_NtCsgN1vMD0IGXY_17chicago_tdd_tools11performanceINtB5_12TickMeasurerNCNvNtB5_5testss_18test_tick_measurer0E7measurelEB7_
FN:116,_RINvNtCsgN1vMD0IGXY_17chicago_tdd_tools11performance13measure_ticksNCINvB2_9benchmarkNCNvNtB2_5testss_14test_benchmark0lE0lEB4_
FN:116,_RINvNtCsgN1vMD0IGXY_17chicago_tdd_tools11performance13measure_ticksNCNvNtB2_5testss_18test_measure_ticks0lEB4_
FN:270,_RINvNtCsgN1vMD0IGXY_17chicago_tdd_tools11performance9benchmarkNCNvNtB2_5testss_14test_benchmark0lEB4_
FN:285,_RNCINvNtCsgN1vMD0IGXY_17chicago_tdd_tools11performance9benchmarkNCNvNtB4_5testss_14test_benchmark0lE0B6_
FN:163,_RNvMs_NtCsgN1vMD0IGXY_17chicago_tdd_tools11performanceINtB4_12TickMeasurerNCNvNtB4_5testss_18test_tick_measurer0E3newB6_
FN:343,_RNCNvNtNtCsgN1vMD0IGXY_17chicago_tdd_tools11performance5testss_14test_benchmark0B7_
FN:194,_RINvMs0_NtCsgN1vMD0IGXY_17chicago_tdd_tools11performanceINtB6_17AsyncTickMeasurerpE7measureppEB8_
FN:141,_RINvNtCsgN1vMD0IGXY_17chicago_tdd_tools11performance19measure_ticks_asyncpppEB4_
FN:198,_RNCINvMs0_NtCsgN1vMD0IGXY_17chicago_tdd_tools11performanceINtB8_17AsyncTickMeasurerpE7measureppE0Ba_
FN:145,_RNCINvNtCsgN1vMD0IGXY_17chicago_tdd_tools11performance19measure_ticks_asyncpppE0B6_
FN:80,_RNvMNtCsgN1vMD0IGXY_17chicago_tdd_tools11performanceNtB2_11TickCounter14exceeds_budget
FN:97,_RNvMNtCsgN1vMD0IGXY_17chicago_tdd_tools11performanceNtB2_11TickCounter29assert_within_hot_path_budget
FN:189,_RNvMs0_NtCsgN1vMD0IGXY_17chicago_tdd_tools11performanceINtB5_17AsyncTickMeasurerpE3newB7_
FN:231,_RNvMs1_NtCsgN1vMD0IGXY_17chicago_tdd_tools11performanceNtB5_15BenchmarkResult21meets_hot_path_budget
FN:236,_RNvMs1_NtCsgN1vMD0IGXY_17chicago_tdd_tools11performanceNtB5_15BenchmarkResult25p95_meets_hot_path_budget
FN:241,_RNvMs1_NtCsgN1vMD0IGXY_17chicago_tdd_tools11performanceNtB5_15BenchmarkResult6format
FNDA:208,_RNvMNtCsgN1vMD0IGXY_17chicago_tdd_tools11performanceNtB2_11TickCounter10read_ticks
FNDA:104,_RNvMNtCsgN1vMD0IGXY_17chicago_tdd_tools11performanceNtB2_11TickCounter13elapsed_ticks
FNDA:1,_RNvMNtCsgN1vMD0IGXY_17chicago_tdd_tools11performanceNtB2_11TickCounter20assert_within_budget
FNDA:104,_RNvMNtCsgN1vMD0IGXY_17chicago_tdd_tools11performanceNtB2_11TickCounter5start
FNDA:1,_RNvNtNtCsgN1vMD0IGXY_17chicago_tdd_tools11performance5testss_14test_benchmark
FNDA:1,_RNvNtNtCsgN1vMD0IGXY_17chicago_tdd_tools11performance5testss_18test_measure_ticks
FNDA:1,_RNvNtNtCsgN1vMD0IGXY_17chicago_tdd_tools11performance5testss_18test_tick_measurer
FNDA:1,_RNvNtNtCsgN1vMD0IGXY_17chicago_tdd_tools11performance5testss_23test_tick_counter_basic
FNDA:1,_RNvNtNtCsgN1vMD0IGXY_17chicago_tdd_tools11performance5testss_31test_tick_counter_within_budget
FNDA:1,_RINvMs_NtCsgN1vMD0IGXY_17chicago_tdd_tools11performanceINtB5_12TickMeasurerNCNvNtB5_5testss_18test_tick_measurer0E7measurelEB7_
FNDA:100,_RINvNtCsgN1vMD0IGXY_17chicago_tdd_tools11performance13measure_ticksNCINvB2_9benchmarkNCNvNtB2_5testss_14test_benchmark0lE0lEB4_
FNDA:1,_RINvNtCsgN1vMD0IGXY_17chicago_tdd_tools11performance13measure_ticksNCNvNtB2_5testss_18test_measure_ticks0lEB4_
FNDA:1,_RINvNtCsgN1vMD0IGXY_17chicago_tdd_tools11performance9benchmarkNCNvNtB2_5testss_14test_benchmark0lEB4_
FNDA:100,_RNCINvNtCsgN1vMD0IGXY_17chicago_tdd_tools11performance9benchmarkNCNvNtB4_5testss_14test_benchmark0lE0B6_
FNDA:1,_RNvMs_NtCsgN1vMD0IGXY_17chicago_tdd_tools11performanceINtB4_12TickMeasurerNCNvNtB4_5testss_18test_tick_measurer0E3newB6_
FNDA:200,_RNCNvNtNtCsgN1vMD0IGXY_17chicago_tdd_tools11performance5testss_14test_benchmark0B7_
FNDA:0,_RINvMs0_NtCsgN1vMD0IGXY_17chicago_tdd_tools11performanceINtB6_17AsyncTickMeasurerpE7measureppEB8_
FNDA:0,_RINvNtCsgN1vMD0IGXY_17chicago_tdd_tools11performance19measure_ticks_asyncpppEB4_
FNDA:0,_RNCINvMs0_NtCsgN1vMD0IGXY_17chicago_tdd_tools11performanceINtB8_17AsyncTickMeasurerpE7measureppE0Ba_
FNDA:0,_RNCINvNtCsgN1vMD0IGXY_17chicago_tdd_tools11performance19measure_ticks_asyncpppE0B6_
FNDA:0,_RNvMNtCsgN1vMD0IGXY_17chicago_tdd_tools11performanceNtB2_11TickCounter14exceeds_budget
FNDA:0,_RNvMNtCsgN1vMD0IGXY_17chicago_tdd_tools11performanceNtB2_11TickCounter29assert_within_hot_path_budget
FNDA:0,_RNvMs0_NtCsgN1vMD0IGXY_17chicago_tdd_tools11performanceINtB5_17AsyncTickMeasurerpE3newB7_
FNDA:0,_RNvMs1_NtCsgN1vMD0IGXY_17chicago_tdd_tools11performanceNtB5_15BenchmarkResult21meets_hot_path_budget
FNDA:0,_RNvMs1_NtCsgN1vMD0IGXY_17chicago_tdd_tools11performanceNtB5_15BenchmarkResult25p95_meets_hot_path_budget
FNDA:0,_RNvMs1_NtCsgN1vMD0IGXY_17chicago_tdd_tools11performanceNtB5_15BenchmarkResult6format
FNF:25
FNH:15
DA:39,104
DA:40,104
DA:41,104
DA:42,104
DA:43,104
DA:46,208
DA:55,208
DA:56,208
DA:57,208
DA:58,208
DA:59,208
DA:60,208
DA:61,208
DA:62,208
DA:72,208
DA:75,104
DA:76,104
DA:77,104
DA:80,0
DA:81,0
DA:82,0
DA:85,1
DA:86,1
DA:87,1
DA:88,0
DA:89,0
DA:90,0
DA:92,1
DA:94,1
DA:97,0
DA:98,0
DA:99,0
DA:116,101
DA:117,101
DA:118,101
DA:120,101
DA:121,101
DA:122,101
DA:123,101
DA:124,101
DA:141,0
DA:142,0
DA:143,0
DA:144,0
DA:145,0
DA:146,0
DA:147,0
DA:148,0
DA:149,0
DA:150,0
DA:163,1
DA:164,1
DA:165,1
DA:168,1
DA:169,1
DA:170,1
DA:172,1
DA:173,1
DA:174,1
DA:175,1
DA:176,1
DA:189,0
DA:190,0
DA:191,0
DA:194,0
DA:195,0
DA:196,0
DA:197,0
DA:198,0
DA:199,0
DA:200,0
DA:201,0
DA:202,0
DA:203,0
DA:231,0
DA:232,0
DA:233,0
DA:236,0
DA:237,0
DA:238,0
DA:241,0
DA:242,0
DA:243,0
DA:252,0
DA:254,0
DA:270,1
DA:271,1
DA:272,1
DA:274,1
DA:277,101
DA:278,100
DA:279,100
DA:284,1
DA:285,100
DA:286,100
DA:290,1
DA:291,1
DA:292,1
DA:293,1
DA:294,1
DA:295,1
DA:296,1
DA:297,1
DA:299,1
DA:300,1
DA:301,1
DA:302,1
DA:303,1
DA:304,1
DA:305,1
DA:306,1
DA:307,1
DA:308,1
DA:309,1
DA:310,1
DA:317,1
DA:318,1
DA:319,1
DA:320,1
DA:322,1
DA:323,1
DA:326,1
DA:327,1
DA:328,1
DA:330,1
DA:331,1
DA:334,1
DA:335,1
DA:336,1
DA:338,1
DA:339,1
DA:342,1
DA:343,200
DA:344,1
DA:345,1
DA:346,1
DA:347,1
DA:348,1
DA:351,1
DA:352,1
DA:353,1
DA:354,1
DA:356,1
DA:357,1
BRF:0
BRH:0
LF:146
LH:103
end_of_record
SF:/Users/sac/chicago-tdd-tools/src/property.rs
FN:89,_RINvNtCsgN1vMD0IGXY_17chicago_tdd_tools8property23property_all_data_validKpKpEB4_
FN:35,_RNvMNtCsgN1vMD0IGXY_17chicago_tdd_tools8propertyINtB2_21PropertyTestGeneratorKpKpE18generate_test_dataB4_
FN:22,_RNvMNtCsgN1vMD0IGXY_17chicago_tdd_tools8propertyINtB2_21PropertyTestGeneratorKpKpE3newB4_
FN:58,_RNvMNtCsgN1vMD0IGXY_17chicago_tdd_tools8propertyINtB2_21PropertyTestGeneratorKpKpE9max_depthB4_
FN:53,_RNvMNtCsgN1vMD0IGXY_17chicago_tdd_tools8propertyINtB2_21PropertyTestGeneratorKpKpE9max_itemsB4_
FN:27,_RNvMNtCsgN1vMD0IGXY_17chicago_tdd_tools8propertyINtB2_21PropertyTestGeneratorKpKpE9with_seedB4_
FN:77,_RNvMs0_NtCsgN1vMD0IGXY_17chicago_tdd_tools8propertyNtB5_9SimpleRng3new
FN:81,_RNvMs0_NtCsgN1vMD0IGXY_17chicago_tdd_tools8propertyNtB5_9SimpleRng4next
FN:66,_RNvXININtCsgN1vMD0IGXY_17chicago_tdd_tools8propertys_0KpKpEINtB5_21PropertyTestGeneratorKpKpENtNtCs2CqrNpCrSUr_4core7default7Default7defaultB7_
FNDA:0,_RINvNtCsgN1vMD0IGXY_17chicago_tdd_tools8property23property_all_data_validKpKpEB4_
FNDA:0,_RNvMNtCsgN1vMD0IGXY_17chicago_tdd_tools8propertyINtB2_21PropertyTestGeneratorKpKpE18generate_test_dataB4_
FNDA:0,_RNvMNtCsgN1vMD0IGXY_17chicago_tdd_tools8propertyINtB2_21PropertyTestGeneratorKpKpE3newB4_
FNDA:0,_RNvMNtCsgN1vMD0IGXY_17chicago_tdd_tools8propertyINtB2_21PropertyTestGeneratorKpKpE9max_depthB4_
FNDA:0,_RNvMNtCsgN1vMD0IGXY_17chicago_tdd_tools8propertyINtB2_21PropertyTestGeneratorKpKpE9max_itemsB4_
FNDA:0,_RNvMNtCsgN1vMD0IGXY_17chicago_tdd_tools8propertyINtB2_21PropertyTestGeneratorKpKpE9with_seedB4_
FNDA:0,_RNvMs0_NtCsgN1vMD0IGXY_17chicago_tdd_tools8propertyNtB5_9SimpleRng3new
FNDA:0,_RNvMs0_NtCsgN1vMD0IGXY_17chicago_tdd_tools8propertyNtB5_9SimpleRng4next
FNDA:0,_RNvXININtCsgN1vMD0IGXY_17chicago_tdd_tools8propertys_0KpKpEINtB5_21PropertyTestGeneratorKpKpENtNtCs2CqrNpCrSUr_4core7default7Default7defaultB7_
FNF:9
FNH:0
DA:22,0
DA:23,0
DA:24,0
DA:27,0
DA:28,0
DA:29,0
DA:30,0
DA:35,0
DA:36,0
DA:37,0
DA:39,0
DA:41,0
DA:43,0
DA:44,0
DA:45,0
DA:46,0
DA:47,0
DA:49,0
DA:50,0
DA:53,0
DA:54,0
DA:55,0
DA:58,0
DA:59,0
DA:60,0
DA:66,0
DA:67,0
DA:68,0
DA:77,0
DA:78,0
DA:79,0
DA:81,0
DA:83,0
DA:84,0
DA:85,0
DA:89,0
DA:90,0
DA:91,0
DA:92,0
DA:93,0
DA:94,0
DA:95,0
DA:96,0
DA:97,0
DA:99,0
DA:100,0
BRF:0
BRH:0
LF:46
LH:0
end_of_record
SF:/Users/sac/chicago-tdd-tools/src/state.rs
FN:112,_RINvMs0_NtCsgN1vMD0IGXY_17chicago_tdd_tools5stateINtB6_9TestStateNtB6_6AssertE11assert_thatNCNvNtB6_5testss_20test_state_lifecycles_0EB8_
FN:79,_RINvMs_NtCsgN1vMD0IGXY_17chicago_tdd_tools5stateINtB5_9TestStateNtB5_3ActE7executeNCNvNtB5_5testss_20test_state_lifecycle0EB7_
FN:131,_RNvNtNtCsgN1vMD0IGXY_17chicago_tdd_tools5state5testss_20test_state_lifecycle
FN:151,_RNvNtNtCsgN1vMD0IGXY_17chicago_tdd_tools5state5testss_31test_state_prevents_wrong_order
FN:60,_RNvMNtCsgN1vMD0IGXY_17chicago_tdd_tools5stateINtB2_9TestStateNtB2_7ArrangeE17with_arrange_data
FN:69,_RNvMNtCsgN1vMD0IGXY_17chicago_tdd_tools5stateINtB2_9TestStateNtB2_7ArrangeE3act
FN:52,_RNvMNtCsgN1vMD0IGXY_17chicago_tdd_tools5stateINtB2_9TestStateNtB2_7ArrangeE3new
FN:102,_RNvMs0_NtCsgN1vMD0IGXY_17chicago_tdd_tools5stateINtB5_9TestStateNtB5_6AssertE10act_result
FN:92,_RNvMs_NtCsgN1vMD0IGXY_17chicago_tdd_tools5stateINtB4_9TestStateNtB4_3ActE6assert
FN:107,_RNvMs0_NtCsgN1vMD0IGXY_17chicago_tdd_tools5stateINtB5_9TestStateNtB5_6AssertE12arrange_data
FN:121,_RNvXs1_NtCsgN1vMD0IGXY_17chicago_tdd_tools5stateINtB5_9TestStateNtB5_7ArrangeENtNtCs2CqrNpCrSUr_4core7default7Default7default
FN:146,_RNCNCNvNtNtCsgN1vMD0IGXY_17chicago_tdd_tools5state5testss_20test_state_lifecycles_00B9_
FN:137,_RNCNvNtNtCsgN1vMD0IGXY_17chicago_tdd_tools5state5testss_20test_state_lifecycle0B7_
FN:146,_RNCNvNtNtCsgN1vMD0IGXY_17chicago_tdd_tools5state5testss_20test_state_lifecycles_0B7_
FNDA:1,_RINvMs0_NtCsgN1vMD0IGXY_17chicago_tdd_tools5stateINtB6_9TestStateNtB6_6AssertE11assert_thatNCNvNtB6_5testss_20test_state_lifecycles_0EB8_
FNDA:1,_RINvMs_NtCsgN1vMD0IGXY_17chicago_tdd_tools5stateINtB5_9TestStateNtB5_3ActE7executeNCNvNtB5_5testss_20test_state_lifecycle0EB7_
FNDA:1,_RNvNtNtCsgN1vMD0IGXY_17chicago_tdd_tools5state5testss_20test_state_lifecycle
FNDA:1,_RNvNtNtCsgN1vMD0IGXY_17chicago_tdd_tools5state5testss_31test_state_prevents_wrong_order
FNDA:1,_RNvMNtCsgN1vMD0IGXY_17chicago_tdd_tools5stateINtB2_9TestStateNtB2_7ArrangeE17with_arrange_data
FNDA:1,_RNvMNtCsgN1vMD0IGXY_17chicago_tdd_tools5stateINtB2_9TestStateNtB2_7ArrangeE3act
FNDA:1,_RNvMNtCsgN1vMD0IGXY_17chicago_tdd_tools5stateINtB2_9TestStateNtB2_7ArrangeE3new
FNDA:1,_RNvMs0_NtCsgN1vMD0IGXY_17chicago_tdd_tools5stateINtB5_9TestStateNtB5_6AssertE10act_result
FNDA:1,_RNvMs_NtCsgN1vMD0IGXY_17chicago_tdd_tools5stateINtB4_9TestStateNtB4_3ActE6assert
FNDA:0,_RNvMs0_NtCsgN1vMD0IGXY_17chicago_tdd_tools5stateINtB5_9TestStateNtB5_6AssertE12arrange_data
FNDA:0,_RNvXs1_NtCsgN1vMD0IGXY_17chicago_tdd_tools5stateINtB5_9TestStateNtB5_7ArrangeENtNtCs2CqrNpCrSUr_4core7default7Default7default
FNDA:1,_RNCNCNvNtNtCsgN1vMD0IGXY_17chicago_tdd_tools5state5testss_20test_state_lifecycles_00B9_
FNDA:1,_RNCNvNtNtCsgN1vMD0IGXY_17chicago_tdd_tools5state5testss_20test_state_lifecycle0B7_
FNDA:1,_RNCNvNtNtCsgN1vMD0IGXY_17chicago_tdd_tools5state5testss_20test_state_lifecycles_0B7_
FNF:14
FNH:12
DA:52,1
DA:53,1
DA:54,1
DA:55,1
DA:56,1
DA:57,1
DA:60,1
DA:61,1
DA:62,1
DA:63,1
DA:69,1
DA:70,1
DA:71,1
DA:72,1
DA:73,1
DA:74,1
DA:79,1
DA:80,1
DA:81,1
DA:83,1
DA:84,1
DA:85,1
DA:86,1
DA:92,1
DA:93,1
DA:94,1
DA:95,1
DA:96,1
DA:97,1
DA:102,1
DA:103,1
DA:104,1
DA:107,0
DA:108,0
DA:109,0
DA:112,1
DA:113,1
DA:114,1
DA:116,1
DA:117,1
DA:121,0
DA:122,0
DA:123,0
DA:131,1
DA:133,1
DA:136,1
DA:137,1
DA:138,1
DA:139,1
DA:140,1
DA:141,1
DA:144,1
DA:145,1
DA:146,1
DA:148,1
DA:151,1
DA:161,1
BRF:0
BRH:0
LF:60
LH:54
end_of_record
SF:/Users/sac/chicago-tdd-tools/src/testcontainers.rs
FN:510,_RNvNtNtCsgN1vMD0IGXY_17chicago_tdd_tools14testcontainers5testss_22test_exec_result_clone
FN:525,_RNvNtNtCsgN1vMD0IGXY_17chicago_tdd_tools14testcontainers5testss_22test_exec_result_debug
FN:496,_RNvNtNtCsgN1vMD0IGXY_17chicago_tdd_tools14testcontainers5testss_26test_exec_result_structure
FN:476,_RNvNtNtCsgN1vMD0IGXY_17chicago_tdd_tools14testcontainers5testss_33test_testcontainers_error_display
FN:235,_RNCNvMs0_NtNtCsgN1vMD0IGXY_17chicago_tdd_tools14testcontainers14implementationNtB7_16GenericContainer10with_ports0Bb_
FN:255,_RNCNvMs0_NtNtCsgN1vMD0IGXY_17chicago_tdd_tools14testcontainers14implementationNtB7_16GenericContainer13get_host_port0Bb_
FN:298,_RNCNvMs0_NtNtCsgN1vMD0IGXY_17chicago_tdd_tools14testcontainers14implementationNtB7_16GenericContainer13with_wait_for0Bb_
FN:175,_RNCNvMs0_NtNtCsgN1vMD0IGXY_17chicago_tdd_tools14testcontainers14implementationNtB7_16GenericContainer3new0Bb_
FN:334,_RNCNvMs0_NtNtCsgN1vMD0IGXY_17chicago_tdd_tools14testcontainers14implementationNtB7_16GenericContainer4exec0Bb_
FN:347,_RNCNvMs0_NtNtCsgN1vMD0IGXY_17chicago_tdd_tools14testcontainers14implementationNtB7_16GenericContainer4execs0_0Bb_
FN:352,_RNCNvMs0_NtNtCsgN1vMD0IGXY_17chicago_tdd_tools14testcontainers14implementationNtB7_16GenericContainer4execs1_0Bb_
FN:358,_RNCNvMs0_NtNtCsgN1vMD0IGXY_17chicago_tdd_tools14testcontainers14implementationNtB7_16GenericContainer4execs2_0Bb_
FN:361,_RNCNvMs0_NtNtCsgN1vMD0IGXY_17chicago_tdd_tools14testcontainers14implementationNtB7_16GenericContainer4execs3_0Bb_
FN:367,_RNCNvMs0_NtNtCsgN1vMD0IGXY_17chicago_tdd_tools14testcontainers14implementationNtB7_16GenericContainer4execs4_0Bb_
FN:339,_RNCNvMs0_NtNtCsgN1vMD0IGXY_17chicago_tdd_tools14testcontainers14implementationNtB7_16GenericContainer4execs_0Bb_
FN:206,_RNCNvMs0_NtNtCsgN1vMD0IGXY_17chicago_tdd_tools14testcontainers14implementationNtB7_16GenericContainer8with_env0Bb_
FN:126,_RNvMNtNtCsgN1vMD0IGXY_17chicago_tdd_tools14testcontainers14implementationNtB2_15ContainerClient3new
FN:131,_RNvMNtNtCsgN1vMD0IGXY_17chicago_tdd_tools14testcontainers14implementationNtB2_15ContainerClient6client
FN:225,_RNvMs0_NtNtCsgN1vMD0IGXY_17chicago_tdd_tools14testcontainers14implementationNtB5_16GenericContainer10with_ports
FN:251,_RNvMs0_NtNtCsgN1vMD0IGXY_17chicago_tdd_tools14testcontainers14implementationNtB5_16GenericContainer13get_host_port
FN:291,_RNvMs0_NtNtCsgN1vMD0IGXY_17chicago_tdd_tools14testcontainers14implementationNtB5_16GenericContainer13with_wait_for
FN:169,_RNvMs0_NtNtCsgN1vMD0IGXY_17chicago_tdd_tools14testcontainers14implementationNtB5_16GenericContainer3new
FN:331,_RNvMs0_NtNtCsgN1vMD0IGXY_17chicago_tdd_tools14testcontainers14implementationNtB5_16GenericContainer4exec
FN:194,_RNvMs0_NtNtCsgN1vMD0IGXY_17chicago_tdd_tools14testcontainers14implementationNtB5_16GenericContainer8with_env
FN:308,_RNvMs0_NtNtCsgN1vMD0IGXY_17chicago_tdd_tools14testcontainers14implementationNtB5_16GenericContainer9container
FN:137,_RNvXs_NtNtCsgN1vMD0IGXY_17chicago_tdd_tools14testcontainers14implementationNtB4_15ContainerClientNtNtCs2CqrNpCrSUr_4core7default7Default7default
FNDA:1,_RNvNtNtCsgN1vMD0IGXY_17chicago_tdd_tools14testcontainers5testss_22test_exec_result_clone
FNDA:1,_RNvNtNtCsgN1vMD0IGXY_17chicago_tdd_tools14testcontainers5testss_22test_exec_result_debug
FNDA:1,_RNvNtNtCsgN1vMD0IGXY_17chicago_tdd_tools14testcontainers5testss_26test_exec_result_structure
FNDA:1,_RNvNtNtCsgN1vMD0IGXY_17chicago_tdd_tools14testcontainers5testss_33test_testcontainers_error_display
FNDA:0,_RNCNvMs0_NtNtCsgN1vMD0IGXY_17chicago_tdd_tools14testcontainers14implementationNtB7_16GenericContainer10with_ports0Bb_
FNDA:0,_RNCNvMs0_NtNtCsgN1vMD0IGXY_17chicago_tdd_tools14testcontainers14implementationNtB7_16GenericContainer13get_host_port0Bb_
FNDA:0,_RNCNvMs0_NtNtCsgN1vMD0IGXY_17chicago_tdd_tools14testcontainers14implementationNtB7_16GenericContainer13with_wait_for0Bb_
FNDA:0,_RNCNvMs0_NtNtCsgN1vMD0IGXY_17chicago_tdd_tools14testcontainers14implementationNtB7_16GenericContainer3new0Bb_
FNDA:0,_RNCNvMs0_NtNtCsgN1vMD0IGXY_17chicago_tdd_tools14testcontainers14implementationNtB7_16GenericContainer4exec0Bb_
FNDA:0,_RNCNvMs0_NtNtCsgN1vMD0IGXY_17chicago_tdd_tools14testcontainers14implementationNtB7_16GenericContainer4execs0_0Bb_
FNDA:0,_RNCNvMs0_NtNtCsgN1vMD0IGXY_17chicago_tdd_tools14testcontainers14implementationNtB7_16GenericContainer4execs1_0Bb_
FNDA:0,_RNCNvMs0_NtNtCsgN1vMD0IGXY_17chicago_tdd_tools14testcontainers14implementationNtB7_16GenericContainer4execs2_0Bb_
FNDA:0,_RNCNvMs0_NtNtCsgN1vMD0IGXY_17chicago_tdd_tools14testcontainers14implementationNtB7_16GenericContainer4execs3_0Bb_
FNDA:0,_RNCNvMs0_NtNtCsgN1vMD0IGXY_17chicago_tdd_tools14testcontainers14implementationNtB7_16GenericContainer4execs4_0Bb_
FNDA:0,_RNCNvMs0_NtNtCsgN1vMD0IGXY_17chicago_tdd_tools14testcontainers14implementationNtB7_16GenericContainer4execs_0Bb_
FNDA:0,_RNCNvMs0_NtNtCsgN1vMD0IGXY_17chicago_tdd_tools14testcontainers14implementationNtB7_16GenericContainer8with_env0Bb_
FNDA:0,_RNvMNtNtCsgN1vMD0IGXY_17chicago_tdd_tools14testcontainers14implementationNtB2_15ContainerClient3new
FNDA:0,_RNvMNtNtCsgN1vMD0IGXY_17chicago_tdd_tools14testcontainers14implementationNtB2_15ContainerClient6client
FNDA:0,_RNvMs0_NtNtCsgN1vMD0IGXY_17chicago_tdd_tools14testcontainers14implementationNtB5_16GenericContainer10with_ports
FNDA:0,_RNvMs0_NtNtCsgN1vMD0IGXY_17chicago_tdd_tools14testcontainers14implementationNtB5_16GenericContainer13get_host_port
FNDA:0,_RNvMs0_NtNtCsgN1vMD0IGXY_17chicago_tdd_tools14testcontainers14implementationNtB5_16GenericContainer13with_wait_for
FNDA:0,_RNvMs0_NtNtCsgN1vMD0IGXY_17chicago_tdd_tools14testcontainers14implementationNtB5_16GenericContainer3new
FNDA:0,_RNvMs0_NtNtCsgN1vMD0IGXY_17chicago_tdd_tools14testcontainers14implementationNtB5_16GenericContainer4exec
FNDA:0,_RNvMs0_NtNtCsgN1vMD0IGXY_17chicago_tdd_tools14testcontainers14implementationNtB5_16GenericContainer8with_env
FNDA:0,_RNvMs0_NtNtCsgN1vMD0IGXY_17chicago_tdd_tools14testcontainers14implementationNtB5_16GenericContainer9container
FNDA:0,_RNvXs_NtNtCsgN1vMD0IGXY_17chicago_tdd_tools14testcontainers14implementationNtB4_15ContainerClientNtNtCs2CqrNpCrSUr_4core7default7Default7default
FNF:26
FNH:4
DA:126,0
DA:127,0
DA:128,0
DA:131,0
DA:132,0
DA:133,0
DA:137,0
DA:138,0
DA:139,0
DA:169,0
DA:170,0
DA:171,0
DA:172,0
DA:173,0
DA:174,0
DA:175,0
DA:176,0
DA:177,0
DA:179,0
DA:180,0
DA:194,0
DA:195,0
DA:196,0
DA:197,0
DA:198,0
DA:199,0
DA:200,0
DA:202,0
DA:203,0
DA:204,0
DA:205,0
DA:206,0
DA:207,0
DA:208,0
DA:210,0
DA:211,0
DA:225,0
DA:226,0
DA:227,0
DA:228,0
DA:229,0
DA:230,0
DA:231,0
DA:232,0
DA:233,0
DA:234,0
DA:235,0
DA:236,0
DA:237,0
DA:239,0
DA:240,0
DA:251,0
DA:252,0
DA:253,0
DA:254,0
DA:255,0
DA:256,0
DA:257,0
DA:258,0
DA:259,0
DA:260,0
DA:261,0
DA:262,0
DA:291,0
DA:292,0
DA:293,0
DA:294,0
DA:295,0
DA:296,0
DA:297,0
DA:298,0
DA:299,0
DA:300,0
DA:302,0
DA:303,0
DA:308,0
DA:309,0
DA:310,0
DA:331,0
DA:333,0
DA:334,0
DA:336,0
DA:337,0
DA:338,0
DA:339,0
DA:340,0
DA:341,0
DA:342,0
DA:343,0
DA:344,0
DA:346,0
DA:347,0
DA:348,0
DA:349,0
DA:351,0
DA:352,0
DA:353,0
DA:354,0
DA:357,0
DA:358,0
DA:359,0
DA:360,0
DA:361,0
DA:362,0
DA:363,0
DA:365,0
DA:366,0
DA:367,0
DA:368,0
DA:369,0
DA:371,0
DA:372,0
DA:373,0
DA:374,0
DA:375,0
DA:376,0
DA:476,1
DA:478,1
DA:479,1
DA:480,1
DA:481,1
DA:482,1
DA:483,1
DA:484,1
DA:485,1
DA:488,8
DA:489,7
DA:490,7
DA:491,7
DA:493,1
DA:496,1
DA:498,1
DA:499,1
DA:500,1
DA:501,1
DA:502,1
DA:504,1
DA:505,1
DA:506,1
DA:507,1
DA:510,1
DA:512,1
DA:513,1
DA:514,1
DA:515,1
DA:516,1
DA:518,1
DA:519,1
DA:520,1
DA:521,1
DA:522,1
DA:525,1
DA:527,1
DA:528,1
DA:529,1
DA:530,1
DA:531,1
DA:533,1
DA:534,1
DA:535,1
DA:536,1
DA:537,1
BRF:0
BRH:0
LF:185
LH:46
end_of_record
SF:/Users/sac/chicago-tdd-tools/src/weaver.rs
FN:142,_RNvXs_NtCsgN1vMD0IGXY_17chicago_tdd_tools6weaverNtB4_15WeaverValidatorNtNtNtCs2CqrNpCrSUr_4core3ops4drop4Drop4drop
FN:90,_RNCNvMNtCsgN1vMD0IGXY_17chicago_tdd_tools6weaverNtB4_15WeaverValidator5start0B6_
FN:175,_RNCNvNtCsgN1vMD0IGXY_17chicago_tdd_tools6weaver22validate_schema_static0B5_
FN:181,_RNCNvNtCsgN1vMD0IGXY_17chicago_tdd_tools6weaver22validate_schema_statics_0B5_
FN:135,_RNvMNtCsgN1vMD0IGXY_17chicago_tdd_tools6weaverNtB2_15WeaverValidator10is_running
FN:73,_RNvMNtCsgN1vMD0IGXY_17chicago_tdd_tools6weaverNtB2_15WeaverValidator22check_weaver_available
FN:78,_RNvMNtCsgN1vMD0IGXY_17chicago_tdd_tools6weaverNtB2_15WeaverValidator5start
FN:161,_RNvNtCsgN1vMD0IGXY_17chicago_tdd_tools6weaver22validate_schema_static
FN:62,_RNvMNtCsgN1vMD0IGXY_17chicago_tdd_tools6weaverNtB2_15WeaverValidator11with_config
FN:130,_RNvMNtCsgN1vMD0IGXY_17chicago_tdd_tools6weaverNtB2_15WeaverValidator13otlp_endpoint
FN:51,_RNvMNtCsgN1vMD0IGXY_17chicago_tdd_tools6weaverNtB2_15WeaverValidator3new
FN:114,_RNvMNtCsgN1vMD0IGXY_17chicago_tdd_tools6weaverNtB2_15WeaverValidator4stop
FN:209,_RNvNtNtCsgN1vMD0IGXY_17chicago_tdd_tools6weaver5testss_25test_weaver_validator_new
FN:218,_RNvNtNtCsgN1vMD0IGXY_17chicago_tdd_tools6weaver5testss_33test_weaver_validator_with_config
FN:227,_RNvNtNtCsgN1vMD0IGXY_17chicago_tdd_tools6weaver5testss_35test_weaver_validator_otlp_endpoint
FNDA:3,_RNvXs_NtCsgN1vMD0IGXY_17chicago_tdd_tools6weaverNtB4_15WeaverValidatorNtNtNtCs2CqrNpCrSUr_4core3ops4drop4Drop4drop
FNDA:0,_RNCNvMNtCsgN1vMD0IGXY_17chicago_tdd_tools6weaverNtB4_15WeaverValidator5start0B6_
FNDA:0,_RNCNvNtCsgN1vMD0IGXY_17chicago_tdd_tools6weaver22validate_schema_static0B5_
FNDA:0,_RNCNvNtCsgN1vMD0IGXY_17chicago_tdd_tools6weaver22validate_schema_statics_0B5_
FNDA:0,_RNvMNtCsgN1vMD0IGXY_17chicago_tdd_tools6weaverNtB2_15WeaverValidator10is_running
FNDA:0,_RNvMNtCsgN1vMD0IGXY_17chicago_tdd_tools6weaverNtB2_15WeaverValidator22check_weaver_available
FNDA:0,_RNvMNtCsgN1vMD0IGXY_17chicago_tdd_tools6weaverNtB2_15WeaverValidator5start
FNDA:0,_RNvNtCsgN1vMD0IGXY_17chicago_tdd_tools6weaver22validate_schema_static
FNDA:1,_RNvMNtCsgN1vMD0IGXY_17chicago_tdd_tools6weaverNtB2_15WeaverValidator11with_config
FNDA:1,_RNvMNtCsgN1vMD0IGXY_17chicago_tdd_tools6weaverNtB2_15WeaverValidator13otlp_endpoint
FNDA:2,_RNvMNtCsgN1vMD0IGXY_17chicago_tdd_tools6weaverNtB2_15WeaverValidator3new
FNDA:3,_RNvMNtCsgN1vMD0IGXY_17chicago_tdd_tools6weaverNtB2_15WeaverValidator4stop
FNDA:1,_RNvNtNtCsgN1vMD0IGXY_17chicago_tdd_tools6weaver5testss_25test_weaver_validator_new
FNDA:1,_RNvNtNtCsgN1vMD0IGXY_17chicago_tdd_tools6weaver5testss_33test_weaver_validator_with_config
FNDA:1,_RNvNtNtCsgN1vMD0IGXY_17chicago_tdd_tools6weaver5testss_35test_weaver_validator_otlp_endpoint
FNF:15
FNH:8
DA:51,2
DA:52,2
DA:53,2
DA:54,2
DA:55,2
DA:56,2
DA:57,2
DA:58,2
DA:59,2
DA:62,1
DA:63,1
DA:64,1
DA:65,1
DA:66,1
DA:67,1
DA:68,1
DA:69,1
DA:70,1
DA:73,0
DA:74,0
DA:75,0
DA:78,0
DA:80,0
DA:83,0
DA:84,0
DA:85,0
DA:86,0
DA:87,0
DA:90,0
DA:91,0
DA:92,0
DA:94,0
DA:95,0
DA:96,0
DA:97,0
DA:98,0
DA:99,0
DA:100,0
DA:103,0
DA:104,0
DA:105,0
DA:107,0
DA:108,0
DA:110,0
DA:111,0
DA:114,3
DA:115,3
DA:116,0
DA:117,0
DA:118,0
DA:119,3
DA:121,3
DA:122,0
DA:123,3
DA:125,3
DA:126,3
DA:127,3
DA:130,1
DA:131,1
DA:132,1
DA:135,0
DA:136,0
DA:137,0
DA:142,3
DA:143,3
DA:144,3
DA:161,0
DA:165,0
DA:168,0
DA:169,0
DA:170,0
DA:171,0
DA:172,0
DA:175,0
DA:176,0
DA:177,0
DA:178,0
DA:179,0
DA:180,0
DA:181,0
DA:182,0
DA:183,0
DA:185,0
DA:186,0
DA:187,0
DA:188,0
DA:190,0
DA:192,0
DA:193,0
DA:194,0
DA:195,0
DA:196,0
DA:197,0
DA:198,0
DA:200,0
DA:201,0
DA:209,1
DA:210,1
DA:211,1
DA:212,1
DA:213,1
DA:214,1
DA:218,1
DA:219,1
DA:220,1
DA:221,1
DA:222,1
DA:223,1
DA:227,1
DA:228,1
DA:229,1
DA:230,1
DA:231,1
BRF:0
BRH:0
LF:119
LH:49
end_of_record
SF:/Users/sac/chicago-tdd-tools/src/weaver_types.rs
FN:82,_RNvMNtCsgN1vMD0IGXY_17chicago_tdd_tools12weaver_typesNtB2_15WeaverLiveCheck11with_format
FN:88,_RNvMNtCsgN1vMD0IGXY_17chicago_tdd_tools12weaver_typesNtB2_15WeaverLiveCheck11with_output
FN:180,_RNvMNtCsgN1vMD0IGXY_17chicago_tdd_tools12weaver_typesNtB2_15WeaverLiveCheck13otlp_endpoint
FN:52,_RNvMNtCsgN1vMD0IGXY_17chicago_tdd_tools12weaver_typesNtB2_15WeaverLiveCheck13with_registry
FN:64,_RNvMNtCsgN1vMD0IGXY_17chicago_tdd_tools12weaver_typesNtB2_15WeaverLiveCheck14with_otlp_port
FN:70,_RNvMNtCsgN1vMD0IGXY_17chicago_tdd_tools12weaver_typesNtB2_15WeaverLiveCheck15with_admin_port
FN:58,_RNvMNtCsgN1vMD0IGXY_17chicago_tdd_tools12weaver_typesNtB2_15WeaverLiveCheck17with_otlp_address
FN:76,_RNvMNtCsgN1vMD0IGXY_17chicago_tdd_tools12weaver_typesNtB2_15WeaverLiveCheck23with_inactivity_timeout
FN:39,_RNvMNtCsgN1vMD0IGXY_17chicago_tdd_tools12weaver_typesNtB2_15WeaverLiveCheck3new
FN:168,_RNvMNtCsgN1vMD0IGXY_17chicago_tdd_tools12weaver_typesNtB2_15WeaverLiveCheck4stop
FN:186,_RNvXs_NtCsgN1vMD0IGXY_17chicago_tdd_tools12weaver_typesNtB4_15WeaverLiveCheckNtNtCs2CqrNpCrSUr_4core7default7Default7default
FN:224,_RNvNtNtCsgN1vMD0IGXY_17chicago_tdd_tools12weaver_types5testss_26test_weaver_live_check_new
FN:237,_RNvNtNtCsgN1vMD0IGXY_17chicago_tdd_tools12weaver_types5testss_30test_weaver_live_check_default
FN:214,_RNvNtNtCsgN1vMD0IGXY_17chicago_tdd_tools12weaver_types5testss_34test_weaver_validation_error_debug
FN:266,_RNvNtNtCsgN1vMD0IGXY_17chicago_tdd_tools12weaver_types5testss_36test_weaver_live_check_otlp_endpoint
FN:197,_RNvNtNtCsgN1vMD0IGXY_17chicago_tdd_tools12weaver_types5testss_36test_weaver_validation_error_display
FN:245,_RNvNtNtCsgN1vMD0IGXY_17chicago_tdd_tools12weaver_types5testss_38test_weaver_live_check_builder_pattern
FN:279,_RNvNtNtCsgN1vMD0IGXY_17chicago_tdd_tools12weaver_types5testss_38test_weaver_live_check_port_boundaries
FN:289,_RNvNtNtCsgN1vMD0IGXY_17chicago_tdd_tools12weaver_types5testss_41test_weaver_live_check_timeout_boundaries
FN:158,_RNCNvMNtCsgN1vMD0IGXY_17chicago_tdd_tools12weaver_typesNtB4_15WeaverLiveCheck5start0B6_
FN:117,_RNvMNtCsgN1vMD0IGXY_17chicago_tdd_tools12weaver_typesNtB2_15WeaverLiveCheck12check_health
FN:94,_RNvMNtCsgN1vMD0IGXY_17chicago_tdd_tools12weaver_typesNtB2_15WeaverLiveCheck22check_weaver_available
FN:134,_RNvMNtCsgN1vMD0IGXY_17chicago_tdd_tools12weaver_typesNtB2_15WeaverLiveCheck5start
FNDA:1,_RNvMNtCsgN1vMD0IGXY_17chicago_tdd_tools12weaver_typesNtB2_15WeaverLiveCheck11with_format
FNDA:1,_RNvMNtCsgN1vMD0IGXY_17chicago_tdd_tools12weaver_typesNtB2_15WeaverLiveCheck11with_output
FNDA:2,_RNvMNtCsgN1vMD0IGXY_17chicago_tdd_tools12weaver_typesNtB2_15WeaverLiveCheck13otlp_endpoint
FNDA:1,_RNvMNtCsgN1vMD0IGXY_17chicago_tdd_tools12weaver_typesNtB2_15WeaverLiveCheck13with_registry
FNDA:3,_RNvMNtCsgN1vMD0IGXY_17chicago_tdd_tools12weaver_typesNtB2_15WeaverLiveCheck14with_otlp_port
FNDA:2,_RNvMNtCsgN1vMD0IGXY_17chicago_tdd_tools12weaver_typesNtB2_15WeaverLiveCheck15with_admin_port
FNDA:2,_RNvMNtCsgN1vMD0IGXY_17chicago_tdd_tools12weaver_typesNtB2_15WeaverLiveCheck17with_otlp_address
FNDA:3,_RNvMNtCsgN1vMD0IGXY_17chicago_tdd_tools12weaver_typesNtB2_15WeaverLiveCheck23with_inactivity_timeout
FNDA:7,_RNvMNtCsgN1vMD0IGXY_17chicago_tdd_tools12weaver_typesNtB2_15WeaverLiveCheck3new
FNDA:0,_RNvMNtCsgN1vMD0IGXY_17chicago_tdd_tools12weaver_typesNtB2_15WeaverLiveCheck4stop
FNDA:1,_RNvXs_NtCsgN1vMD0IGXY_17chicago_tdd_tools12weaver_typesNtB4_15WeaverLiveCheckNtNtCs2CqrNpCrSUr_4core7default7Default7default
FNDA:1,_RNvNtNtCsgN1vMD0IGXY_17chicago_tdd_tools12weaver_types5testss_26test_weaver_live_check_new
FNDA:1,_RNvNtNtCsgN1vMD0IGXY_17chicago_tdd_tools12weaver_types5testss_30test_weaver_live_check_default
FNDA:1,_RNvNtNtCsgN1vMD0IGXY_17chicago_tdd_tools12weaver_types5testss_34test_weaver_validation_error_debug
FNDA:1,_RNvNtNtCsgN1vMD0IGXY_17chicago_tdd_tools12weaver_types5testss_36test_weaver_live_check_otlp_endpoint
FNDA:1,_RNvNtNtCsgN1vMD0IGXY_17chicago_tdd_tools12weaver_types5testss_36test_weaver_validation_error_display
FNDA:1,_RNvNtNtCsgN1vMD0IGXY_17chicago_tdd_tools12weaver_types5testss_38test_weaver_live_check_builder_pattern
FNDA:1,_RNvNtNtCsgN1vMD0IGXY_17chicago_tdd_tools12weaver_types5testss_38test_weaver_live_check_port_boundaries
FNDA:1,_RNvNtNtCsgN1vMD0IGXY_17chicago_tdd_tools12weaver_types5testss_41test_weaver_live_check_timeout_boundaries
FNDA:0,_RNCNvMNtCsgN1vMD0IGXY_17chicago_tdd_tools12weaver_typesNtB4_15WeaverLiveCheck5start0B6_
FNDA:0,_RNvMNtCsgN1vMD0IGXY_17chicago_tdd_tools12weaver_typesNtB2_15WeaverLiveCheck12check_health
FNDA:0,_RNvMNtCsgN1vMD0IGXY_17chicago_tdd_tools12weaver_typesNtB2_15WeaverLiveCheck22check_weaver_available
FNDA:0,_RNvMNtCsgN1vMD0IGXY_17chicago_tdd_tools12weaver_typesNtB2_15WeaverLiveCheck5start
FNF:23
FNH:18
DA:39,7
DA:40,7
DA:41,7
DA:42,7
DA:43,7
DA:44,7
DA:45,7
DA:46,7
DA:47,7
DA:48,7
DA:49,7
DA:52,1
DA:53,1
DA:54,1
DA:55,1
DA:58,2
DA:59,2
DA:60,2
DA:61,2
DA:64,3
DA:65,3
DA:66,3
DA:67,3
DA:70,2
DA:71,2
DA:72,2
DA:73,2
DA:76,3
DA:77,3
DA:78,3
DA:79,3
DA:82,1
DA:83,1
DA:84,1
DA:85,1
DA:88,1
DA:89,1
DA:90,1
DA:91,1
DA:94,0
DA:98,0
DA:99,0
DA:100,0
DA:101,0
DA:103,0
DA:106,0
DA:107,0
DA:108,0
DA:110,0
DA:114,0
DA:117,0
DA:120,0
DA:121,0
DA:122,0
DA:123,0
DA:124,0
DA:125,0
DA:126,0
DA:127,0
DA:128,0
DA:130,0
DA:134,0
DA:136,0
DA:139,0
DA:141,0
DA:143,0
DA:144,0
DA:145,0
DA:147,0
DA:148,0
DA:149,0
DA:150,0
DA:151,0
DA:153,0
DA:154,0
DA:155,0
DA:157,0
DA:158,0
DA:159,0
DA:160,0
DA:162,0
DA:164,0
DA:165,0
DA:168,0
DA:171,0
DA:172,0
DA:173,0
DA:174,0
DA:175,0
DA:180,2
DA:181,2
DA:182,2
DA:186,1
DA:187,1
DA:188,1
DA:197,1
DA:199,1
DA:200,1
DA:201,1
DA:202,1
DA:203,1
DA:206,5
DA:207,4
DA:208,4
DA:209,4
DA:211,1
DA:214,1
DA:216,1
DA:217,1
DA:218,1
DA:219,1
DA:220,1
DA:224,1
DA:226,1
DA:227,1
DA:228,1
DA:229,1
DA:230,1
DA:231,1
DA:232,1
DA:233,1
DA:234,1
DA:237,1
DA:239,1
DA:240,1
DA:241,1
DA:242,1
DA:245,1
DA:247,1
DA:248,1
DA:249,1
DA:250,1
DA:251,1
DA:252,1
DA:253,1
DA:254,1
DA:256,1
DA:257,1
DA:258,1
DA:259,1
DA:260,1
DA:261,1
DA:262,1
DA:263,1
DA:266,1
DA:268,1
DA:269,1
DA:271,1
DA:272,1
DA:273,1
DA:274,1
DA:275,1
DA:279,1
DA:281,1
DA:282,1
DA:283,1
DA:284,1
DA:285,1
DA:286,1
DA:289,1
DA:291,1
DA:292,1
DA:293,1
DA:294,1
DA:295,1
BRF:0
BRH:0
LF:166
LH:115
end_of_record